(dp0
S'1'
p1
(lp2
(VUMFEGpPjaQ
p3
VJeff
p4
VHoffman
p5
Vhttp://www.linkedin.com/pub/jeff-hoffman/4/8aa/a31
p6
cnumpy.core.multiarray
scalar
p7
(cnumpy
dtype
p8
(S'f8'
p9
I0
I1
tp10
Rp11
(I3
S'<'
p12
NNNI-1
I-1
I0
tp13
bS'\xbd\xb2\xd6s\xb8b\t@'
p14
tp15
Rp16
I0
tp17
a(VP6Y8VbM8Rw
p18
VBrian
p19
VLewis
p20
Vhttp://www.linkedin.com/in/brianlewisphd
p21
g7
(g11
S'\x99?j\x0b/\x8e\n@'
p22
tp23
Rp24
I1
tp25
a(VA1fAzDkVm-
p26
VBrandon
p27
VChild
p28
Vhttp://www.linkedin.com/pub/brandon-child/8/597/137
p29
g7
(g11
S'\xf3\xd4\x18\xd4\xa7\xfa\n@'
p30
tp31
Rp32
I0
tp33
a(VMHr0tykzcD
p34
VScott
p35
VNorton
p36
Vhttp://www.linkedin.com/in/swhnorton
p37
g7
(g11
S'\xf1\x8b\xd69\xfa9\x0c@'
p38
tp39
Rp40
I0
tp41
a(VOc8Z3NUFnm
p42
VAndy
p43
VTian
p44
Vhttp://www.linkedin.com/in/andytian
p45
g7
(g11
S'\x94\xa25\xe21\x0c\x0e@'
p46
tp47
Rp48
I0
tp49
asS'0'
p50
(lp51
(V5_bazHrFXM
p52
VRyan
p53
VGarner
p54
Vhttp://www.linkedin.com/in/ryanstevengarner
p55
g7
(g11
S'9:\x8c\xdd\x0e\xbc\x05@'
p56
tp57
Rp58
I1
tp59
a(V9rp-RHpUjp
p60
VLillian
p61
VCarrasquillo
p62
Vhttp://www.linkedin.com/in/lillianmcarrasquillo
p63
g7
(g11
S'\x0c\xe3\xd7\x83l\x1d\x06@'
p64
tp65
Rp66
I1
tp67
a(VqYJkR3ZDjF
p68
VShawn
p69
VO'Hare
p70
Vhttp://www.linkedin.com/in/shawnohare
p71
g7
(g11
S'\x82\xab\xf7$z)\x06@'
p72
tp73
Rp74
I0
tp75
a(V5DA9c4_GJa
p76
VAndrew
p77
VCron
p78
Vhttp://www.linkedin.com/in/andrewjcron
p79
g7
(g11
S';\xf5\xa5p\xcb\xe5\x06@'
p80
tp81
Rp82
I1
tp83
a(VbKUpGi-ZKa
p84
VNate
p85
VCoehlo
p86
Vhttp://www.linkedin.com/in/natec
p87
g7
(g11
S'%\xf9\xf4\x8f(\x1b\x07@'
p88
tp89
Rp90
I0
tp91
asS'3'
p92
(lp93
(VPI0Gpgh4l-
p94
VGary
p95
VLips
p96
Vhttp://www.linkedin.com/pub/gary-lips/1/444/609
p97
g7
(g11
S'M\x99\x82-\xee\x10\x06@'
p98
tp99
Rp100
I0
tp101
a(VzUisxgdTKi
p102
VRachel
p103
VLetchumanan
p104
Vhttp://www.linkedin.com/pub/rachel-letchumanan/16/417/925
p105
g7
(g11
S'r\xa7\xeb\xf3^\x0e\x07@'
p106
tp107
Rp108
I0
tp109
a(VVKm6XLhfxI
p110
VDawn
p111
VColon
p112
Vhttp://www.linkedin.com/pub/dawn-colon/13/342/548
p113
g7
(g11
S'5\xb4\x1f\xea\xe7\xf5\x07@'
p114
tp115
Rp116
I0
tp117
a(VdjLn2fuqv7
p118
VGloria
p119
VLam
p120
Vhttp://www.linkedin.com/in/glorialam
p121
g7
(g11
S'@Y\x11\xfb\x0cZ\x08@'
p122
tp123
Rp124
I0
tp125
a(VDRH9wEa0IW
p126
VRajender
p127
VSingh
p128
Vhttp://www.linkedin.com/in/rajendersingh77
p129
g7
(g11
S'\x1d\xcd\xdc\xf0\x8e\x82\x08@'
p130
tp131
Rp132
I0
tp133
asS'2'
p134
(lp135
(VxmOdJ95LNv
p136
VSudhir
p137
VDudwadkar
p138
Vhttp://www.linkedin.com/pub/sudhir-dudwadkar/0/512/804
p139
g7
(g11
S'\\\xd4\xef\x11*1\xf2?'
p140
tp141
Rp142
I0
tp143
a(Vfo__-ngXeZ
p144
VAndreas
p145
VNauleau
p146
Vhttp://www.linkedin.com/pub/andreas-nauleau/56/264/744
p147
g7
(g11
S'\\\xd4\xef\x11*1\xf2?'
p148
tp149
Rp150
I0
tp151
a(VBrE9OUhPuN
p152
VWalt
p153
VMischke
p154
Vhttp://www.linkedin.com/pub/walt-mischke/4/bb4/a52
p155
g7
(g11
S'\\\xd4\xef\x11*1\xf2?'
p156
tp157
Rp158
I0
tp159
a(V5Z8iJNIwMt
p160
VHamilton
p161
VUlmer
p162
Vhttp://www.linkedin.com/pub/hamilton-ulmer/17/978/28b
p163
g7
(g11
S'\\\xd4\xef\x11*1\xf2?'
p164
tp165
Rp166
I0
tp167
a(VJQorLMhOQy
p168
VPardeep
p169
VSidhu
p170
Vhttp://www.linkedin.com/pub/pardeep-sidhu/8/937/28b
p171
g7
(g11
S'\\\xd4\xef\x11*1\xf2?'
p172
tp173
Rp174
I0
tp175
asS'4'
p176
(lp177
(Vo8vFbcfVB8
p178
VMark P
p179
VNeyer
p180
Vhttp://www.linkedin.com/in/markpneyer
p181
g7
(g11
S'\xe6\x87\xa4\xfc\xe6\x02\x07@'
p182
tp183
Rp184
I0
tp185
a(VebHmIVifo4
p186
VJulian
p187
VCole
p188
Vhttp://www.linkedin.com/pub/julian-cole/4/3bb/337
p189
g7
(g11
S't\xa6\xa1A\xb4?\x07@'
p190
tp191
Rp192
I0
tp193
a(VFW6ISLJs6w
p194
VSilvia
p195
VRestelli
p196
Vhttp://www.linkedin.com/pub/silvia-restelli/1/183/1b8
p197
g7
(g11
S'\xfd\xfeg\x8c\xc7\x96\x07@'
p198
tp199
Rp200
I0
tp201
a(VkZ2f-JNpy8
p202
VMathias
p203
VKolehmainen
p204
Vhttp://www.linkedin.com/in/mathiask
p205
g7
(g11
S'8\x9c\xebi\xc12\x08@'
p206
tp207
Rp208
I0
tp209
a(VjUV0AUSv1G
p210
VBrad
p211
VAisa
p212
Vhttp://www.linkedin.com/pub/brad-aisa/44/247/245
p213
g7
(g11
S'N\xe8\xcc\x18\x04:\x08@'
p214
tp215
Rp216
I0
tp217
as.