ccopy_reg
_reconstructor
p0
(csklearn.decomposition.nmf
NMF
p1
c__builtin__
object
p2
Ntp3
Rp4
(dp5
S'reconstruction_err_'
p6
cnumpy.core.multiarray
scalar
p7
(cnumpy
dtype
p8
(S'f8'
p9
I0
I1
tp10
Rp11
(I3
S'<'
p12
NNNI-1
I-1
I0
tp13
bS'\xb9\xc4u~\xf8f\\@'
p14
tp15
Rp16
sS'components_'
p17
cnumpy.core.multiarray
_reconstruct
p18
(cnumpy
ndarray
p19
(I0
tp20
S'b'
p21
tp22
Rp23
(I1
(I2
I2682
tp24
g8
(S'O8'
p25
I0
I1
tp26
Rp27
(I3
S'|'
p28
NNNI-1
I-1
I63
tp29
bI00
(lp30
I0
aF0.00947571307024667
aF0.23791982443026247
aI0
aF0.010564212449637178
aI0
aF0.12340649061055385
aI0
aI0
aF0.019687706417919917
aI0
aF0.0012761478923440548
aI0
aF0.003909638832939537
aI0
aF0.0072902723082632235
aF0.002305727402893836
aI0
aF0.005561355691447393
aI0
aF0.004582725142700461
aI0
aI0
aF0.028755661454305945
aF0.03291235115530242
aF0.011385837964648956
aI0
aI0
aI0
aF0.07393095920722911
aF0.010700274998938764
aF0.011397955232546336
aF0.009914559591973278
aI0
aF0.008728183145275034
aF0.004491826106388208
aF0.00851885366234671
aF0.016469975902220508
aF0.005182406312380952
aF0.009672733925877277
aI0
aF0.009093837322634349
aI0
aF0.04040576038789182
aF0.04562074223237301
aF0.003796286883093382
aF0.012928471250675993
aF0.07661979489106506
aI0
aF0.00813693615919876
aF0.0077944481744320095
aI0
aI0
aF0.0012667368167953166
aF0.007145367186706918
aF0.008728183145275034
aI0
aI0
aF0.00556486984518626
aF0.006232019807180635
aI0
aF0.0050011467853648866
aF0.033960662494496405
aF0.026805339694042547
aI0
aF0.0722909486271099
aF0.002305727402893836
aF0.006510107883288254
aF0.013215644788438122
aI0
aF0.009859280535060353
aF0.009393682999374021
aI0
aF0.0022907847568984325
aF0.00023475293202452678
aF0.163114186447537
aF0.007546608600184516
aF0.00813693615919876
aF0.013478861347683248
aF0.013044491553139526
aF0.01869665167019062
aF0.010195257043924325
aF0.053297682993740846
aF0.0071057999039534905
aF0.022078295980178943
aF0.0071057999039534905
aF0.0017954707623706748
aF0.004510015811051283
aF0.11500377449219232
aF0.01377950312945825
aI0
aF0.0009302169385958285
aF0.018132487967102647
aF0.001649438392144375
aI0
aF0.0013097753441828845
aI0
aI0
aF0.014581474231617108
aF0.0013799415941414502
aF0.01651414582385202
aF0.01723001954408167
aF0.007435930263432875
aI0
aF0.001673687267843229
aF0.18755739259350612
aF0.01895044026796405
aF0.0071057999039534905
aF0.0019442478054078846
aF0.003964298810767381
aF5.138799654953639e-05
aI0
aF0.008381110207303142
aF0.0021498130913524816
aF0.00808988808160589
aI0
aI0
aF0.014937351731027969
aF0.2914703172087595
aF0.001379598214828606
aI0
aF0.036791760004948805
aI0
aF0.001379598214828606
aI0
aF0.0049717134012775745
aF0.00023475293202452678
aI0
aF0.004596512159792269
aI0
aI0
aI0
aF0.015370134439460798
aI0
aI0
aI0
aF0.008634070339386301
aI0
aF0.010094787120766387
aF0.0065996534639296296
aI0
aF0.003919601454769069
aI0
aI0
aF0.01648393940163143
aF0.009859280535060353
aF0.0177814552873168
aF0.004066648334911375
aF0.011007435149547072
aF0.009393682999374021
aI0
aI0
aF0.010865792852643505
aI0
aF0.007051845063922614
aI0
aF0.000227233750494967
aI0
aI0
aF0.04875170973138136
aI0
aF0.014917574758598949
aI0
aF0.002726052028708594
aF0.029792865033406578
aF0.009859280535060353
aF0.011695220364960268
aF0.10738669307694661
aF0.014665649512876716
aF0.007294451506987973
aF0.00017877089553191254
aF0.0014877911109402804
aF0.0013799415941414502
aI0
aI0
aF0.014873856613165181
aF0.01696237993837702
aF0.01731777695015448
aF0.05799090666098676
aI0
aF0.016529865891340777
aF0.00724857237241744
aF0.044391655534143336
aF0.014186696960975667
aF0.44258788476188005
aF0.009004623497558982
aF0.011754378690873734
aF0.000227233750494967
aI0
aI0
aF0.5001240353365414
aF0.06713205383531874
aF0.003964298810767381
aF0.0012761478923440548
aF0.022187843441938835
aF0.008602611082690547
aI0
aF0.0057797145250052485
aF0.011798465281727722
aF0.0022979309450479957
aF0.013818914118399547
aI0
aF0.004064670078345521
aI0
aI0
aF0.1543772394654104
aF0.010318809093675099
aF0.011397955232546336
aF0.0395491866231389
aF0.067687652310459
aI0
aF0.026750168043583263
aF0.002726052028708594
aI0
aF0.002029694701580899
aF0.00778150760479835
aF0.0071057999039534905
aI0
aF0.005385176647316921
aI0
aF0.13649288611259053
aF0.008728183145275034
aF0.007435930263432875
aF0.0006549304614101246
aF0.18228514000006402
aI0
aI0
aI0
aF0.004153927373913663
aF0.014581474231617108
aF0.0065996534639296296
aI0
aF0.01895814125302828
aF0.0005080055674784617
aI0
aF0.004510015811051283
aF0.014917574758598949
aI0
aF0.0005579743805419046
aF0.011385837964648956
aF0.015739624498406258
aF0.0057797145250052485
aF0.01895044026796405
aI0
aF0.05438058526849498
aF0.0049717134012775745
aI0
aF0.007267373756879966
aF0.017126719147937293
aF0.007051845063922614
aF0.010377362885440933
aI0
aI0
aF0.0020730393176535697
aI0
aF0.009062526570999572
aF0.01199671077804493
aF0.011397955232546336
aF0.14992979563624664
aI0
aF0.0012091943772207497
aF0.0393780651111868
aF0.0005579743805419046
aI0
aF0.014917574758598949
aI0
aI0
aF0.01869665167019062
aF0.004066648334911375
aF0.012913019337604123
aF0.011695220364960268
aF0.011007435149547072
aF0.00813693615919876
aF0.010432632574345792
aI0
aF0.009112589657918157
aI0
aI0
aF0.01710082309893161
aF0.011007435149547072
aF0.01187354588588761
aF0.0058058729307275255
aF0.027432478618984384
aI0
aF0.009062526570999572
aI0
aI0
aF0.007399405391189665
aF6.598996510101638e-05
aF0.00316102071469515
aF0.007435930263432875
aF0.0009302169385958285
aF0.00851885366234671
aF0.19203511240176263
aF0.0005579743805419046
aF0.051765213771943354
aF0.009933962611518745
aF0.002305727402893836
aF0.0009302169385958285
aF0.006249198916826946
aI0
aI0
aI0
aI0
aF0.19005519787414388
aF0.022078295980178943
aF0.007404178677920227
aF0.054027957894790604
aF0.006504586735623318
aF0.010611089536999808
aF0.08573147493632449
aI0
aI0
aF0.007936854578908886
aF0.014095824772175376
aF0.05722832211884236
aI0
aF0.005739275433211367
aI0
aF0.0033408397096841612
aF0.013081934025436415
aF0.013478861347683248
aI0
aI0
aI0
aI0
aF0.017079538665655987
aF0.05121360838723289
aI0
aF0.007051845063922614
aF0.013343450965882245
aF0.004165671194287651
aF0.007792162481471406
aF0.011007435149547072
aF0.002305727402893836
aF0.47123003184409573
aF0.036587083977803414
aI0
aI0
aF0.008451214477037873
aI0
aF0.009912324799520896
aF0.007401428801887269
aF0.012809738621114997
aI0
aF0.015939260084911363
aI0
aI0
aF0.3397381927530582
aF0.005385176647316921
aF0.03111325561446192
aF0.032180068567938036
aI0
aF0.002726052028708594
aF1.4819326249528861
aF0.0012761478923440548
aI0
aI0
aI0
aF0.005795238908524109
aF0.0028447779083969815
aF0.03393866927504814
aF0.001379598214828606
aF0.003655985573815855
aF0.02064426535944605
aF0.000529150479753026
aI0
aF0.018331612190458327
aF0.028748386143995344
aF0.04351744064061618
aI0
aF0.010432632574345792
aI0
aF0.00778150760479835
aI0
aI0
aI0
aI0
aI0
aF0.007051845063922614
aI0
aF0.013978479981123846
aI0
aF0.003513925333117558
aF0.7630694864732998
aF0.0020730393176535697
aI0
aF0.0013799415941414502
aI0
aI0
aF0.024863315973580897
aI0
aF0.0010481085115668254
aI0
aF0.0013799415941414502
aF0.01651414582385202
aI0
aI0
aF0.05776253929734563
aI0
aF0.011754634236531737
aF0.0013799415941414502
aF0.007051845063922614
aF0.11119697274703674
aF0.002186384993160668
aI0
aF0.020555053842765385
aF0.2798786698691923
aF0.011385837964648956
aI0
aF0.002305727402893836
aF0.014901087825409361
aF0.04081206781051323
aF0.022115416140322607
aI0
aF0.07051330009179889
aI0
aF0.013670869203144604
aF0.01869665167019062
aI0
aI0
aF0.0028313027694428458
aI0
aF0.0199001603049026
aI0
aF0.011754378690873734
aF0.0013097753441828845
aF0.001673687267843229
aI0
aI0
aF0.002537961014580879
aF0.14072587037345485
aI0
aF0.00017877089553191254
aF0.05170417388524352
aF0.002029694701580899
aI0
aF0.002537961014580879
aF0.00851885366234671
aF0.001673687267843229
aF0.005271646955155214
aF0.008401976544987526
aF0.0008504627283372636
aI0
aF0.00017877089553191254
aF0.0011089878341277411
aI0
aF0.007051845063922614
aI0
aF0.004185944065789739
aI0
aI0
aF0.013556431799545932
aF0.01058889307292887
aF0.058152664168701136
aI0
aI0
aF0.004830740370673099
aF0.07242076049826637
aI0
aF0.07488949056975763
aF0.010195257043924325
aF0.00949957093510943
aF0.02555217468284393
aF0.011397955232546336
aI0
aI0
aF0.0006549304614101246
aI0
aF0.012799169181201143
aF0.027503269786564977
aF0.008604977397278838
aF0.007773109473719059
aF0.014901087825409361
aF0.0002784026609394335
aF0.010094787120766387
aF0.03980893430008611
aI0
aI0
aF0.003513925333117558
aF1.7770257212562057
aF0.05295779497025621
aF0.0130129643000593
aI0
aI0
aF0.01651414582385202
aI0
aF0.06479866432425903
aI0
aF0.007546608600184516
aF0.021618182774725603
aI0
aF0.004105993622850045
aI0
aF0.003947513496423382
aI0
aF0.0009302169385958285
aF0.009062526570999572
aI0
aF0.004603238194404971
aF0.008858850511239096
aF0.0232184239496138
aF0.0050011467853648866
aF0.11282484146193596
aF0.006204506797252426
aI0
aI0
aF0.017829074825985506
aI0
aF0.002305727402893836
aF0.004436424095746507
aI0
aF0.9431521986009321
aF0.006148623824612446
aI0
aI0
aF0.024186715133228964
aI0
aI0
aF6.598996510101638e-05
aI0
aI0
aI0
aF0.6077090362431218
aF0.005866535254620385
aF0.001673687267843229
aF0.0014486014686849273
aF1.458842598618326
aF0.022685016188105298
aF0.0050011467853648866
aI0
aF0.012807053747101328
aI0
aF0.008618872117819818
aF0.018403528775882503
aF0.011754378690873734
aF0.024557345819662516
aF0.009393682999374021
aF0.008728183145275034
aF0.005472986834122088
aF0.014253715397702644
aI0
aF0.0009302169385958285
aI0
aI0
aI0
aF0.007051845063922614
aI0
aF0.0007154050079426132
aF0.039214192422525405
aF0.0013799415941414502
aF0.0072902723082632235
aI0
aI0
aI0
aI0
aI0
aI0
aF0.023481152042114845
aI0
aF0.004539120750305272
aF0.00813693615919876
aI0
aF0.011385837964648956
aF0.04311433352778095
aF0.00017877089553191254
aF0.004185944065789739
aI0
aF0.0005579743805419046
aI0
aF0.02123111835270406
aI0
aF0.009062526570999572
aF0.04312489253001345
aI0
aI0
aF0.06283532563433387
aF0.0051579439811080515
aF0.007435930263432875
aF0.0005579743805419046
aI0
aF0.0019442478054078846
aI0
aF0.029766358505492734
aF0.009112589657918157
aF0.008728183145275034
aF0.0288525902944055
aI0
aF0.00556486984518626
aF0.007435930263432875
aF0.002726052028708594
aF0.016223055072645005
aI0
aI0
aF0.27542544455081347
aF0.001379598214828606
aF0.003125757978594206
aI0
aI0
aF0.0076678785616879006
aF0.011397955232546336
aF0.00949957093510943
aF0.014100712540898846
aI0
aF0.008371762832393674
aF0.002953108228589441
aF0.011798465281727722
aI0
aF0.009672733925877277
aF0.004066648334911375
aF0.010184706905732203
aF0.02146948041255951
aF0.005536980732219563
aF0.04057236472646421
aF0.18401738592504785
aF0.0006549304614101246
aI0
aF0.05107547985240271
aI0
aF0.008728183145275034
aF0.02806619658644429
aF0.009062526570999572
aF0.0077944481744320095
aI0
aI0
aF0.00346830487619729
aF0.01832231080769643
aI0
aI0
aF0.015241845528954984
aF0.011124605915147143
aF0.025533462157973367
aI0
aI0
aF0.0037296905657876436
aI0
aF0.011007435149547072
aF0.005462433107424556
aF0.0030297688491418956
aF0.005243401028566926
aI0
aF0.0009657641635500975
aF0.0003322397914271737
aF0.0013799415941414502
aF0.010991995290471315
aF0.014526785698133409
aF0.007546608600184516
aI0
aF0.01609780137298867
aI0
aI0
aF0.0013097753441828845
aF0.009112589657918157
aI0
aI0
aF0.00813693615919876
aF0.00017877089553191254
aF0.017079538665655987
aF0.001379598214828606
aI0
aI0
aF0.003796286883093382
aF0.01182791143919863
aI0
aF0.0230407184785222
aF0.00017877089553191254
aI0
aF0.016469975902220508
aI0
aF0.8662749234035503
aF0.007051845063922614
aI0
aF0.0077944481744320095
aI0
aF0.000227233750494967
aF0.0005579743805419046
aF0.007051845063922614
aF0.010432632574345792
aF0.0250914187751042
aF0.01144127233200009
aF0.001379598214828606
aF0.03519716945414835
aF0.01651414582385202
aF0.19624989958548053
aF0.0011057772733727707
aF0.0057797145250052485
aF0.014901087825409361
aF0.022427161432806684
aF0.013478861347683248
aF0.011510079706356612
aF7.643335093792563e-05
aI0
aI0
aF0.011754378690873734
aF0.018726041143827317
aF0.17942157243334508
aI0
aI0
aI0
aI0
aF0.06192435044040872
aF0.007435930263432875
aI0
aF0.6576194152725064
aF0.00023475293202452678
aI0
aI0
aI0
aF0.0012667368167953166
aF0.0013799415941414502
aF0.16231122622743757
aF0.021198160717187664
aI0
aF0.007051845063922614
aI0
aI0
aI0
aF0.02495960663161476
aF0.004933618871562553
aF0.001673687267843229
aI0
aF0.006091645602905803
aF0.0013097753441828845
aI0
aI0
aF0.0077944481744320095
aF0.09682107554838816
aI0
aI0
aF0.0009302169385958285
aF0.009326803877899102
aF0.009112589657918157
aI0
aF0.01187354588588761
aI0
aF0.03725918979034153
aF0.018683006371499365
aI0
aF0.0006797384797576383
aF0.0013799415941414502
aF0.0036728650097831534
aI0
aI0
aI0
aF0.008925929607183608
aI0
aF0.3657880738840735
aF0.1036148010465631
aF0.010432632574345792
aF0.01475130155258201
aI0
aF0.01549741313844708
aF0.013058990730505133
aI0
aF0.016424023934548233
aI0
aI0
aI0
aF0.011452120053814525
aI0
aF0.0042151305015175194
aF0.004671816027441266
aI0
aI0
aF0.001673687267843229
aF0.017381044573314706
aI0
aF0.0008903266699602597
aI0
aF0.012214339447224134
aF0.004933618871562553
aF0.005666379706272435
aF0.011754378690873734
aI0
aF0.06630157411155027
aF0.009406987403009267
aF0.006205003125847911
aF0.0005081229740031896
aF0.28102788240992677
aF0.014768372969408496
aF0.00346830487619729
aF0.01731777695015448
aF0.001931528028947553
aF0.006864451517935164
aF0.002472200714272977
aF0.0012091943772207497
aF0.005701848014059786
aI0
aI0
aF0.00023475293202452678
aF0.03664650205054172
aI0
aI0
aF0.002953108228589441
aF1.1936496202589812
aF0.008515101993487768
aF0.026446811107031714
aF0.0024100979166319105
aI0
aF0.044317075388524085
aI0
aI0
aF0.0035997786647275548
aI0
aF6.598996510101638e-05
aI0
aF0.001673687267843229
aF0.006711056662646849
aF0.020093855797333318
aF0.008640932730967546
aF0.002953108228589441
aI0
aF0.002537961014580879
aI0
aF0.009112589657918157
aI0
aF0.0013097753441828845
aF0.06360673610119025
aF0.002305727402893836
aF0.014547938750448056
aF0.014901087825409361
aI0
aI0
aI0
aI0
aF0.017023824806097813
aF0.000227233750494967
aF0.015370134439460798
aF1.707798027405175
aF0.0005579743805419046
aF0.04311940069269036
aI0
aF0.02845521530908706
aF0.02424668962881112
aF0.010993547014117177
aF0.009393682999374021
aI0
aF0.006504652204296235
aF0.00813693615919876
aF0.03982995570706078
aF0.0009302169385958285
aI0
aI0
aF0.018132487967102647
aF0.02282105406510407
aF0.02635784797005872
aF0.007629675381873012
aI0
aF0.006686272232050331
aI0
aI0
aF0.008372514883550983
aF0.009112589657918157
aF0.011798465281727722
aF0.02128680996600011
aF0.00974165766632671
aF0.006148623824612446
aF0.04356545083120047
aI0
aF0.007542227946936565
aF0.0005579743805419046
aF0.03835764349622274
aI0
aI0
aF0.017079538665655987
aI0
aF0.01497913358275943
aF0.31375526624623157
aI0
aI0
aF0.7605160288829713
aF0.008970231858517396
aI0
aF0.009912324799520896
aI0
aF0.02562395870359489
aF0.002726052028708594
aF0.02092540593861464
aF0.00017877089553191254
aI0
aF0.005271646955155214
aF0.008728183145275034
aF0.034992455576426766
aI0
aF0.01731777695015448
aF0.0065996534639296296
aI0
aF0.0006549304614101246
aF0.011548134960769894
aF0.012998954319982443
aI0
aF0.008515101993487768
aF0.02457960770804951
aF0.0007154050079426132
aF0.01187354588588761
aI0
aI0
aI0
aF0.007435930263432875
aF0.008621989279348926
aF0.02473549648531401
aI0
aF0.05225200445041173
aF0.0013097753441828845
aI0
aI0
aF0.01807967986757143
aI0
aI0
aI0
aF0.015370134439460798
aF0.0055220132851833414
aF0.05020512004409787
aF0.0020730393176535697
aI0
aF0.03849494448868597
aF0.015838164309637973
aI0
aI0
aI0
aF0.0065996534639296296
aF0.012972525724764032
aF9.666423256753181e-05
aI0
aF0.004372509435411024
aF0.012845629821990428
aF0.009912324799520896
aF0.0041165329474102995
aF0.027570707209436728
aI0
aF0.003630229934971517
aF0.05220241463806274
aF0.024713298871868006
aI0
aF0.02931972501197127
aF1.1190498857523197
aI0
aI0
aI0
aI0
aI0
aF0.0012667368167953166
aI0
aF0.007327244389549866
aF0.9221919856483644
aF0.00851885366234671
aF0.017477588454489684
aF2.422729545325077
aI0
aF0.0071057999039534905
aI0
aF0.008773053963318593
aF0.01648393940163143
aF0.009062526570999572
aF0.006212321929681072
aF0.04040576038789182
aI0
aI0
aF0.005310968418362084
aF0.002953108228589441
aI0
aF0.0006165711736574772
aF0.029563935582072487
aI0
aI0
aF0.012858813454092953
aI0
aI0
aF0.004510015811051283
aF0.012807053747101328
aF0.01362355174349633
aI0
aF0.00448652546020401
aF0.0196742954471776
aF0.11920841250752519
aF0.010945733570059277
aF0.009062526570999572
aF0.009093837322634349
aF0.01108601294836363
aF0.009062526570999572
aI0
aI0
aF0.01322131061950663
aF0.01487084236912649
aF0.003125757978594206
aI0
aF0.007546608600184516
aF0.0033463021200550785
aF0.018514137564918768
aF0.03571354546175993
aF0.06256677181879011
aF0.4264590334310154
aF0.027961953536568298
aF0.00949957093510943
aF0.030345742605638885
aI0
aF9.328995892870922e-05
aF0.002029694701580899
aF0.009912324799520896
aI0
aF0.1205593905961167
aF0.010195257043924325
aF0.0022907847568984325
aF0.044933088836399945
aI0
aF0.015370134439460798
aI0
aF0.00851885366234671
aF0.000976900149036427
aI0
aF0.009112589657918157
aI0
aI0
aI0
aF0.029159189086388485
aF0.017023824806097813
aF0.05144312194170821
aF0.010617869711191906
aI0
aI0
aI0
aF0.00346830487619729
aF0.0005579743805419046
aF0.003630229934971517
aI0
aF0.007629675381873012
aF0.010195257043924325
aI0
aI0
aF0.0019313471897485243
aF0.018456818043416135
aF0.008770444925503718
aF0.007629675381873012
aI0
aF0.03346542489164006
aF0.013904738605076898
aI0
aF0.03269002159488607
aF0.0017954707623706748
aF0.016469975902220508
aF0.00949957093510943
aI0
aF0.004066648334911375
aF0.07339971124066737
aI0
aF0.00949957093510943
aF0.0005579743805419046
aI0
aI0
aI0
aF0.0019887279153757435
aF0.016899624108728837
aF0.012107997305625055
aF0.014052485730074669
aF0.008634070339386301
aI0
aI0
aI0
aF0.01187354588588761
aI0
aI0
aI0
aI0
aF0.017023824806097813
aI0
aF6.598996510101638e-05
aF0.004185944065789739
aI0
aI0
aF0.008330847025424465
aF0.011385837964648956
aF0.01221325463853624
aF0.00813693615919876
aI0
aF0.007365908706104508
aF0.04190792183268373
aF0.0006165711736574772
aF0.03802987950232939
aF0.011397955232546336
aI0
aI0
aI0
aI0
aF0.044742993167020545
aF0.017912536661720733
aI0
aI0
aF0.08292395827457216
aF0.006212321929681072
aF0.0130129643000593
aF0.010354908240563928
aI0
aI0
aF0.011385837964648956
aF0.003796286883093382
aF0.009062526570999572
aI0
aF0.013978479981123846
aF0.0022907847568984325
aF0.017079538665655987
aF0.005795238908524109
aF0.007792162481471406
aF0.000227233750494967
aI0
aF0.007640228181090873
aF0.0005579743805419046
aI0
aF0.010611089536999808
aI0
aI0
aI0
aF9.963176540752101e-05
aF0.009406987403009267
aI0
aI0
aF0.021653824733099583
aF0.007051845063922614
aF0.0197830289114087
aF0.00017877089553191254
aF0.017079538665655987
aI0
aI0
aI0
aF0.0020730393176535697
aF0.012274852397298091
aF0.003789131832807837
aF0.07144906751921248
aF0.008401976544987526
aF0.014194435285674297
aF0.009062526570999572
aF0.05343004602645873
aF0.013754082558883168
aF0.00346830487619729
aF0.014937351731027969
aF0.016189729454650637
aF0.00788604340994468
aF0.001244320083450708
aF0.012807053747101328
aI0
aF0.01557266998556215
aF0.04896782097450876
aF0.010331111220780858
aI0
aI0
aF0.005797551597764797
aI0
aF0.014937351731027969
aF0.03392375689361411
aF0.02041563818242344
aF0.010991054376619689
aF0.009859280535060353
aF0.0005579743805419046
aI0
aF0.011581283862719385
aF0.3080293483162931
aF0.002537961014580879
aF0.029096247851099096
aF0.0002624198141419375
aF0.015152434274931107
aF0.005742816537710991
aF0.00337573548531097
aI0
aI0
aI0
aF0.011049203748003271
aF0.011007435149547072
aI0
aF0.012548525418204339
aI0
aF0.015191254250058519
aF0.0071057999039534905
aI0
aF0.04816423277161307
aI0
aI0
aF0.0013799415941414502
aF0.0019313471897485243
aF0.010094787120766387
aF0.006711056662646849
aF0.0057797145250052485
aF0.06607624408931957
aI0
aF0.0005579743805419046
aF0.6926460605609389
aI0
aF0.0022022948461337005
aI0
aF0.004481947677126485
aF0.0065996534639296296
aF0.000227233750494967
aF0.03437188828294782
aI0
aI0
aF0.011385837964648956
aF0.0029004845585637036
aF2.2436745062303234
aI0
aF0.06683800695777402
aI0
aF0.019323494399479352
aF0.004153217965766429
aF0.1452904841610681
aI0
aF0.007435930263432875
aF0.006148623824612446
aI0
aF0.019900939958136726
aI0
aF0.011397955232546336
aF0.0011792889581401151
aF0.03392375689361411
aI0
aI0
aI0
aF0.012042308786168203
aF0.008226929648506633
aF0.0005579743805419046
aF0.5901944390688261
aF0.013938558865598187
aF0.0027229724921160347
aI0
aF0.020702566279733454
aF0.0013799415941414502
aI0
aI0
aF0.32159002627725775
aF0.019737226387351866
aI0
aI0
aF0.0029004845585637036
aF0.011754378690873734
aF0.00851885366234671
aI0
aI0
aF0.000941984956145086
aF0.058912134664949205
aF0.006504652204296235
aF0.04593425166485577
aF0.03310491023841393
aF0.0017301207878768295
aF0.05036645408221789
aI0
aI0
aF0.0005080055674784617
aF0.01651414582385202
aF0.00851885366234671
aI0
aF0.0802321731906078
aF0.016241127244405365
aF0.020890438010198204
aF0.010048634789623265
aI0
aF0.01784223198786783
aF0.10886675496112266
aI0
aF0.011124605915147143
aF0.010375563143597485
aI0
aI0
aF0.1056919882430164
aF0.008789853254284555
aF0.00813693615919876
aI0
aF0.11985214893196165
aF0.007051845063922614
aF0.01807967986757143
aI0
aF0.000538024595394197
aF0.011642061360648678
aI0
aF0.011311469072657341
aF0.12013987293049307
aF0.0065996534639296296
aF0.0011057772733727707
aF0.001379598214828606
aI0
aF0.0030336912005800363
aF0.01487084236912649
aF0.002545016541249061
aF0.0022907847568984325
aF0.0033211768872822194
aF0.012394937171898593
aF0.0393001550885437
aF0.003792733060493259
aF0.0006935993614654343
aF6.598996510101638e-05
aI0
aI0
aF0.00017877089553191254
aF0.0006549304614101246
aF0.009859280535060353
aF0.030720809337072184
aF0.22747441999616994
aI0
aF0.009406987403009267
aI0
aF0.002305727402893836
aF0.0077944481744320095
aF0.0230407184785222
aI0
aI0
aF0.0005374647790939519
aI0
aI0
aF0.012544838089651724
aF0.06485784509914846
aI0
aF0.00778150760479835
aF0.0065996534639296296
aI0
aI0
aF0.0005579743805419046
aI0
aI0
aI0
aI0
aF0.009062526570999572
aI0
aI0
aI0
aI0
aF0.006212321929681072
aF0.002953108228589441
aF0.016580753611567495
aI0
aI0
aF0.002953108228589441
aF0.01916916988468806
aF0.001379598214828606
aF0.01609780137298867
aF0.008640932730967546
aF0.0063571927179732705
aF0.43859676238186834
aF0.01187354588588761
aF0.01604519123099366
aF0.002305727402893836
aF0.0017664359855333008
aF0.02248162644885742
aF0.024812602081914374
aF0.0033408397096841612
aF0.03392375689361411
aI0
aF0.030253075620160184
aF0.12232067733056909
aF0.0036568140662743462
aF0.02954288169747684
aF0.0454719030120454
aF0.009393682999374021
aF0.0011159037267167431
aI0
aF0.09921585909641933
aI0
aF0.00023475293202452678
aF0.005918689649400377
aF0.001910718357294097
aI0
aF0.11802527409512863
aF0.011754378690873734
aF0.011397955232546336
aF0.001379598214828606
aI0
aF0.006719821787026091
aF0.2538058899849645
aF0.1342119394633448
aF0.0063571927179732705
aI0
aI0
aI0
aF0.004390686418772558
aF0.009859280535060353
aF0.0027139431474997445
aF0.002305727402893836
aF0.009112589657918157
aF0.007790529736380687
aF0.041718533303663465
aI0
aI0
aI0
aF0.00017877089553191254
aF0.005362923478040421
aF0.01032846671680988
aI0
aF0.044500785466175544
aF0.0012761478923440548
aF0.002726052028708594
aF0.060614801621896114
aF0.1396748409767546
aF0.0020730393176535697
aF0.01249434331278597
aF0.014632236339479897
aF0.014917574758598949
aF0.006896495087785249
aF0.00017877089553191254
aI0
aI0
aI0
aF0.0004939442021595314
aF0.00017877089553191254
aF0.012238929319186357
aF0.005385176647316921
aF0.013123828045141936
aF0.0005081229740031896
aF0.012688789262722593
aF0.008728183145275034
aI0
aF0.010945733570059277
aI0
aI0
aF0.035610140575832144
aI0
aF0.0075081030276027555
aF0.0006165711736574772
aI0
aF0.010991995290471315
aF0.26822644455359385
aF0.0290410036426054
aI0
aI0
aI0
aI0
aF0.004068239664343821
aF0.030527787171587658
aF0.09893376228568006
aI0
aI0
aF0.004491826106388208
aF0.002805166948636974
aF0.007794776410049343
aI0
aI0
aF0.0009796116766498197
aF0.07713333543085236
aF0.015004714849600653
aF0.022827110296649043
aF0.026817032058831583
aI0
aF0.048769600414020176
aI0
aF0.003999816062172679
aF0.0012667368167953166
aF0.00033923124139166843
aI0
aF0.0007154050079426132
aF0.0022979309450479957
aF0.048936470670034066
aF0.009589918936802685
aF0.00017877089553191254
aI0
aI0
aI0
aF0.0013097753441828845
aF0.011397955232546336
aF0.048199841432941315
aF0.015370134439460798
aF0.00015131975930719697
aF0.04455228869324455
aI0
aF0.014901087825409361
aI0
aF0.014901087825409361
aI0
aI0
aI0
aF0.17887281036509706
aF0.011632831462704352
aF0.00017877089553191254
aF0.007546608600184516
aF0.13436771848454573
aF0.007546608600184516
aI0
aF0.013363106543297884
aF0.0016437869951766238
aF0.011754378690873734
aF0.0065996534639296296
aI0
aF0.0009302169385958285
aI0
aF0.003491312428205267
aF0.0005081229740031896
aF0.0006549304614101246
aF0.005038185969899274
aF0.00017877089553191254
aF0.00504936956904678
aF0.0006483738319201233
aI0
aF0.013580539444679624
aI0
aI0
aF0.025128679800621653
aF0.010622384387205428
aF0.0009302169385958285
aI0
aF0.009112589657918157
aI0
aF0.0005579743805419046
aI0
aI0
aF0.00556486984518626
aI0
aI0
aF0.013941359820980184
aI0
aF0.005385176647316921
aI0
aF0.016529865891340777
aF0.0014313295906909864
aF0.021922698559965016
aF0.0006165711736574772
aI0
aF0.18054806672446236
aI0
aF0.007404178677920227
aI0
aF0.009393682999374021
aF0.0005579743805419046
aF0.00033089829881115165
aI0
aI0
aI0
aI0
aF0.015783369511408622
aI0
aF0.01971557909683256
aF0.011397955232546336
aF0.014937351731027969
aF0.004458848595920162
aF0.07275889590918468
aI0
aF0.02349710265271326
aF0.009062526570999572
aF0.013538487799572018
aI0
aF0.011397955232546336
aI0
aF0.00017877089553191254
aI0
aF0.05234546453697233
aF0.002029694701580899
aF0.017968704415712928
aI0
aF0.007629675381873012
aF1.4997459347588469
aI0
aF0.0013097753441828845
aI0
aF0.01487084236912649
aF0.008067701704823613
aF0.010700274998938764
aF0.01221325463853624
aF0.03987802782160487
aF0.002305727402893836
aF0.029761902013153076
aI0
aI0
aI0
aF0.0009223815425752681
aF0.008515101993487768
aI0
aF0.007051845063922614
aF0.007051845063922614
aF0.017125253016702993
aI0
aI0
aI0
aF0.007399405391189665
aF0.001051333219035852
aF0.03392375689361411
aF0.007051845063922614
aF0.014645544008744557
aF0.009393682999374021
aF0.017921792860880772
aF0.010611089536999808
aI0
aF0.007642006888601484
aI0
aF0.0013799415941414502
aI0
aI0
aF0.001530743002263502
aF0.0041165329474102995
aI0
aF0.01557266998556215
aF0.00017877089553191254
aI0
aF0.011798465281727722
aI0
aI0
aF0.01187354588588761
aF0.031921213509782845
aF0.009859280535060353
aF0.013031778979551026
aF0.970833222855473
aF0.014881822773690798
aI0
aF0.011510079706356612
aI0
aI0
aI0
aF0.005739275433211367
aF0.00847154665490941
aI0
aF0.01667744304097927
aF0.02189325240249411
aF0.008925929607183608
aF0.4412436933542378
aF0.016469975902220508
aF0.007399405391189665
aF0.007792162481471406
aF0.010513949829387352
aI0
aF0.002726052028708594
aF0.05115907662256373
aF0.00023475293202452678
aF0.008925929607183608
aF0.002256560059442329
aI0
aF0.002186384993160668
aF0.013526919380646997
aI0
aF0.0006935993614654343
aI0
aI0
aF9.963176540752101e-05
aF0.010945733570059277
aF0.00949957093510943
aI0
aF0.009062526570999572
aF0.0030540064040534077
aF0.8781123200139318
aF0.012238929319186357
aF0.007051845063922614
aF0.03392375689361411
aF0.003882442810226353
aI0
aF0.03392375689361411
aF0.002953108228589441
aF0.009393682999374021
aF5.138799654953639e-05
aF0.008925929607183608
aF0.0003370186171753524
aF0.37245851656286627
aF0.009062526570999572
aF0.08681349328951278
aF0.006088469111309644
aF0.01651414582385202
aI0
aI0
aI0
aF0.022104031475410107
aF0.009859280535060353
aI0
aI0
aF0.002305727402893836
aF0.01815793540577119
aF0.02961758041376496
aI0
aF0.012734522709058182
aI0
aI0
aF0.002029694701580899
aI0
aI0
aI0
aI0
aF0.03392375689361411
aI0
aF0.0006165711736574772
aI0
aI0
aF0.012665507564002521
aF0.006086777582132364
aF0.007435930263432875
aI0
aI0
aF0.007435930263432875
aF0.03748972959797328
aF0.04246221848612791
aF0.007435930263432875
aF0.00119940302976136
aF0.0005579743805419046
aF0.00813693615919876
aF0.0013097753441828845
aF0.007794776410049343
aI0
aI0
aF0.007081866840552774
aI0
aI0
aF0.011695220364960268
aF0.007051845063922614
aI0
aF6.598996510101638e-05
aF0.001379598214828606
aF0.0013799415941414502
aI0
aF0.014581474231617108
aF0.004066648334911375
aI0
aI0
aF0.017165552489654207
aI0
aF0.016690029342768753
aI0
aI0
aI0
aF0.04737385525094242
aI0
aF0.005385176647316921
aF0.4686451395697857
aI0
aI0
aF7.643335093792563e-05
aF0.0006165711736574772
aF0.007051845063922614
aF0.009393682999374021
aI0
aF0.014581474231617108
aI0
aI0
aF0.010497456980565346
aF0.006003398323447788
aI0
aI0
aF0.007745826759627442
aF0.007546608600184516
aF0.1417595397864541
aI0
aF0.00952931727914799
aF0.03378682181765492
aI0
aI0
aF0.016529865891340777
aI0
aF0.03874730609169886
aF0.0005579743805419046
aF0.024995210112008722
aI0
aF0.02287358913271958
aF0.0071057999039534905
aF0.03339988952476376
aF0.00813693615919876
aF0.0013706518067445712
aF0.0030336912005800363
aI0
aI0
aI0
aI0
aI0
aF0.00280625050590326
aF0.0009302169385958285
aF0.001379598214828606
aF0.020291154094520963
aF0.004066648334911375
aF0.011798465281727722
aI0
aF0.06666455090586296
aF0.0580635763172143
aF0.0077944481744320095
aI0
aF0.309260930218935
aF0.002029694701580899
aI0
aF0.016792193631901483
aI0
aI0
aI0
aF0.2617996983191544
aF0.03447559705686377
aI0
aI0
aF0.0002624198141419375
aF0.014417609011140437
aF0.01731777695015448
aF0.0007154050079426132
aF0.01032846671680988
aF0.031303396210118996
aF0.005092197644017871
aF0.008602611082690547
aF0.005049800486930112
aI0
aI0
aF0.010180890069643933
aF0.010165595255688007
aI0
aF0.003864982866996057
aF0.06109943181688408
aF0.008256453692257661
aI0
aI0
aF0.001673687267843229
aF0.004510015811051283
aF0.007435930263432875
aF0.014901087825409361
aF0.01269561330883184
aF0.009406987403009267
aF0.16713011122385674
aI0
aF0.008640932730967546
aI0
aF0.021874721175084114
aI0
aF0.003964298810767381
aF0.06511293905570081
aI0
aF0.0224774407266069
aI0
aI0
aF0.01895044026796405
aF0.009393682999374021
aF0.017079538665655987
aI0
aF0.002305727402893836
aI0
aF0.001874735452171414
aF0.006711056662646849
aF0.010432632574345792
aI0
aF0.024787438172961553
aF0.00813693615919876
aF0.006148623824612446
aF0.013978479981123846
aI0
aF0.007237590144726594
aF0.010089802062081136
aI0
aI0
aF0.0006761641268369994
aF0.011397955232546336
aF0.0057797145250052485
aI0
aF0.2879518464200444
aI0
aF0.005795238908524109
aI0
aF0.0005579743805419046
aI0
aI0
aF0.015370134439460798
aF0.019410488543550684
aF0.008451214477037873
aF0.012807053747101328
aF0.004746771812358741
aF0.10728224266036815
aI0
aF0.08606269440493708
aF0.8544579177411032
aF0.01761152509012872
aF0.014901087825409361
aF0.01613219274283517
aF0.009062526570999572
aI0
aF0.007435930263432875
aF0.0007154050079426132
aF0.021533069874812998
aI0
aI0
aF0.0037182402635291788
aF0.009062526570999572
aF0.16419325263076037
aF0.003655985573815855
aI0
aI0
aF0.056250407966772685
aF0.004398521814793118
aF0.0066594929236885895
aF0.02160334818119748
aF0.012253463866795046
aF0.003380914518035216
aF0.028025025154276597
aF0.003909638832939537
aF0.06872386866198597
aI0
aF0.018676110272912178
aI0
aF0.1687728296931495
aF0.0230407184785222
aF0.0020598154432680178
aI0
aI0
aF0.025044384146226287
aI0
aF0.006148623824612446
aI0
aI0
aI0
aI0
aF0.00949957093510943
aI0
aI0
aF0.011397955232546336
aF0.002472200714272977
aF0.014820788098444036
aF0.010497456980565346
aF0.26131478391620117
aF0.010617869711191906
aI0
aI0
aI0
aF0.019282911356728924
aF0.00017877089553191254
aF0.012807053747101328
aF0.007629675381873012
aF0.02990254393516176
aF0.0006165711736574772
aI0
aI0
aI0
aF0.016241127244405365
aF0.0038829256656124625
aI0
aF0.009062526570999572
aF0.0067792382211099775
aI0
aF0.004607104845073054
aI0
aF0.015370134439460798
aI0
aF0.0013799415941414502
aF0.007365908706104508
aF0.04209759865369517
aF0.009859280535060353
aF0.007494825131759895
aF0.0009302169385958285
aF0.0033408397096841612
aF0.003964298810767381
aF0.007365908706104508
aF0.0427288063649753
aF0.033960662494496405
aF0.008674019643248942
aF0.017079538665655987
aF0.021086782411237702
aI0
aI0
aF0.009393682999374021
aF0.03047609525220849
aF0.009112589657918157
aF0.00346830487619729
aF0.009393682999374021
aF0.14617548181617893
aI0
aI0
aF0.0101987007481152
aI0
aF0.01914688281897167
aI0
aF0.0230407184785222
aF0.0005579743805419046
aI0
aF0.5592625755168728
aF0.01807967986757143
aI0
aI0
aF0.007629675381873012
aI0
aF0.008925929607183608
aF0.00017877089553191254
aF0.0130129643000593
aF0.009414261618167994
aI0
aF0.0023982870599321806
aI0
aF0.010718927548857815
aF0.011397955232546336
aI0
aF0.007399405391189665
aF0.0013799415941414502
aI0
aF0.012106334764360063
aF0.011385837964648956
aF0.00017877089553191254
aI0
aI0
aF0.029710714735618923
aF0.009129034156877235
aF0.00793297588392021
aF0.007051845063922614
aF0.017715386127677004
aI0
aI0
aF0.12948771569503434
aF0.0006549304614101246
aF0.015254502127026026
aF0.01869665167019062
aI0
aF0.7446916000331694
aF0.031935004757493266
aF0.010331111220780858
aF0.0019442478054078846
aF0.0057797145250052485
aF0.011397955232546336
aI0
aF0.0005579743805419046
aF0.003125757978594206
aI0
aF0.009859280535060353
aF0.0007154050079426132
aI0
aF0.0033408397096841612
aI0
aI0
aF0.030534552496879464
aF0.0230407184785222
aF0.03601002661484634
aF0.2229376202221198
aF0.017578951112034502
aI0
aI0
aI0
aI0
aI0
aI0
aF0.02254138791868282
aI0
aF0.015370134439460798
aI0
aI0
aI0
aF0.40358036496833716
aF0.012688789262722593
aI0
aF0.013044491553139526
aF0.12177533252608944
aF0.13348923328995455
aI0
aI0
aI0
aI0
aI0
aI0
aF0.00778150760479835
aF0.011754378690873734
aI0
aI0
aF0.7476840403892046
aF0.013978479981123846
aI0
aF0.0009302169385958285
aF0.001673687267843229
aF0.0594918077690548
aF0.00813693615919876
aI0
aF0.0006183520068923476
aI0
aF0.02590044876950989
aF0.013403481057416698
aF0.014803813776981645
aI0
aI0
aF0.012977869791497473
aF0.003010138729279307
aF0.0007154050079426132
aF0.0044643075324212415
aF0.015370134439460798
aF0.01651414582385202
aF0.010096257139274523
aI0
aI0
aF0.14726940884439196
aF0.013670869203144604
aI0
aF0.03714691099395891
aF0.004929106527791977
aF0.0008903266699602597
aF0.007629675381873012
aF0.03785671423581004
aF0.006504586735623318
aF0.023030786695250684
aI0
aF0.009859280535060353
aI0
aF0.0016891801362650205
aF0.009062526570999572
aF0.012996703730190021
aF0.04467318939054927
aF0.0013799415941414502
aF0.0033408397096841612
aI0
aF0.005038185969899274
aF0.010048634789623265
aF0.0009302169385958285
aF0.0007154050079426132
aI0
aF0.006940778561594614
aI0
aI0
aI0
aF0.012548525418204339
aF0.00346830487619729
aF0.0022907847568984325
aI0
aI0
aF0.0230407184785222
aF0.002726052028708594
aF0.00243765647503667
aF0.031192125546268056
aI0
aF0.14550770749378983
aF0.011624392490098508
aI0
aI0
aF0.0130129643000593
aI0
aI0
aI0
aF0.007051845063922614
aF0.002305727402893836
aF0.0053029810298314915
aF0.009112589657918157
aF0.014937351731027969
aI0
aI0
aF0.0013799415941414502
aF0.0013097753441828845
aI0
aI0
aF0.003380914518035216
aF0.0072902723082632235
aF0.005362923478040421
aF0.02864914008943042
aF0.00017877089553191254
aF0.009859280535060353
aF0.002537961014580879
aF0.004066648334911375
aF0.01102611409032303
aF0.5571777275945645
aI0
aF0.06289516701012644
aF0.018878942718539994
aF0.011510079706356612
aF0.007435930263432875
aF0.011219142911047305
aI0
aF0.002186384993160668
aF0.0013097753441828845
aI0
aF0.00017877089553191254
aI0
aF0.000976900149036427
aI0
aI0
aF0.011007435149547072
aF0.00851885366234671
aI0
aF0.011372389942016128
aF0.012594092422022182
aF0.009859280535060353
aF0.0013799415941414502
aF0.00949957093510943
aF0.001379598214828606
aF0.001673687267843229
aF0.00023475293202452678
aF0.010195257043924325
aI0
aF0.18398284919569938
aI0
aF0.008728183145275034
aF0.003864982866996057
aF0.00023475293202452678
aI0
aF0.005694580903605805
aF0.014901087825409361
aF0.00022972189890196616
aI0
aI0
aI0
aI0
aI0
aF5.138799654953639e-05
aF0.002305727402893836
aF0.0016081906751088514
aF0.015441067241461506
aF0.007435930263432875
aF0.00949957093510943
aI0
aI0
aI0
aF0.0003322397914271737
aI0
aF0.0006935993614654343
aF1.6564352913456295
aI0
aF0.0005081229740031896
aF0.00017877089553191254
aF0.009393682999374021
aF0.011510879330424578
aF0.5098231466205064
aF0.013031778979551026
aI0
aI0
aI0
aF0.0065996534639296296
aF0.30522431589523213
aI0
aF0.001673687267843229
aF0.009859280535060353
aF0.010195257043924325
aF0.007051845063922614
aI0
aF0.002029694701580899
aF0.004255851241842419
aI0
aF0.0005579743805419046
aI0
aF0.0033956767555566626
aI0
aF0.02508902520062264
aI0
aF0.0352131912752285
aI0
aF0.00940229649932931
aF0.0013799415941414502
aI0
aF0.03805192037868215
aF0.012450149459445815
aI0
aI0
aF0.0033264290521324573
aI0
aF0.013978479981123846
aF0.01636339394050024
aI0
aF0.013941359820980184
aF0.015217026174273663
aF0.0019442478054078846
aI0
aI0
aF0.010700274998938764
aF0.0066291628449242895
aF0.0006165711736574772
aI0
aF0.0013799415941414502
aF0.012807053747101328
aF0.01811364540785033
aF0.010195257043924325
aF0.00017877089553191254
aF0.008728183145275034
aF0.014581474231617108
aF0.0017954707623706748
aF0.009093837322634349
aF0.0005080055674784617
aF0.0046080225418706
aF0.004066648334911375
aF1.9850294950937037
aI0
aF3.935194457062201e-05
aF0.008925929607183608
aF0.0009302169385958285
aI0
aF0.09461673978541135
aI0
aF0.012544838089651724
aF0.0262384474511151
aF0.01187354588588761
aF0.18866073203698172
aF0.013978479981123846
aF0.01964770322582388
aF0.008728183145275034
aF0.01807967986757143
aF0.10168685623815583
aF0.02001048204508637
aF0.005739275433211367
aF0.017888118814063384
aF0.013754082558883168
aF0.0008734647898697057
aF0.002472200714272977
aI0
aI0
aI0
aF0.012450149459445815
aF0.004491826106388208
aF0.03289791238241563
aF0.015370134439460798
aF0.005182406312380952
aF0.0057797145250052485
aF0.0005579743805419046
aI0
aF0.0046080225418706
aF0.0563859655875519
aF0.01280892240968527
aI0
aF0.008100966311417946
aI0
aF0.009859280535060353
aF0.003010138729279307
aF0.17103126104958832
aI0
aF0.47234014098770843
aF0.022202509492989332
aF0.003348221503569756
aF0.014917574758598949
aF0.013296234195216325
aF0.01795781424019076
aF0.007051845063922614
aF0.01832285795421079
aF0.06874540858604611
aF0.010265382520281755
aI0
aF0.012700718674297676
aI0
aF0.006829579539263241
aF0.011754378690873734
aF0.0009302169385958285
aI0
aF0.006204506797252426
aI0
aI0
aI0
aI0
aF0.011007435149547072
aF0.007629675381873012
aI0
aI0
aF0.06806354572857158
aI0
aF0.007546608600184516
aF0.0013799415941414502
aF0.011459880949407955
aF0.0057797145250052485
aI0
aF9.963176540752101e-05
aF0.031234848076385702
aF0.12948408066624806
aI0
aF0.024966513245370373
aF0.025800854087366036
aF0.001379598214828606
aI0
aF0.02391853324284188
aF0.13831349532820414
aF0.005866535254620385
aF0.021622764435024616
aI0
aF0.008640932730967546
aF0.024405852998828574
aF0.003930702592125496
aF0.010945733570059277
aF0.21189932399018702
aF0.002953108228589441
aF0.002029694701580899
aF0.005742816537710991
aF0.010907793208090148
aF0.008634070339386301
aI0
aF0.026844091558706727
aF0.05582893226137781
aF0.0013097753441828845
aI0
aF0.007404178677920227
aF0.22545790257507423
aF0.0030622495187298386
aF0.15391517358926834
aI0
aI0
aF0.018132487967102647
aI0
aI0
aF0.0005579743805419046
aF0.060090422951073814
aF0.003964298810767381
aF0.0196742954471776
aF0.0071057999039534905
aI0
aF0.07867383303735186
aF0.004510015811051283
aF0.00508401585239251
aF0.00813693615919876
aI0
aI0
aI0
aF0.015844388494142884
aF0.007136872947515288
aI0
aF0.004811911673742899
aF0.0010321461925787397
aF0.9670993210252116
aF0.012927881438797787
aF0.010945733570059277
aI0
aF0.5058759370125795
aF0.024088946630573656
aF0.0006549304614101246
aF0.014100712540898846
aF0.059797974965003935
aF0.001244320083450708
aF0.003348221503569756
aF0.033960662494496405
aF0.08986569027297141
aF0.002029694701580899
aI0
aI0
aF0.0017954707623706748
aI0
aF0.008728183145275034
aF0.11370419175555173
aF0.009062526570999572
aF0.0071057999039534905
aF0.011149792536093286
aF0.15709399258489523
aF0.04521999736638191
aF0.07984732483076348
aF0.266036623139217
aF0.0065996534639296296
aF1.0622215883653996
aI0
aF0.007435930263432875
aI0
aF0.0077645567217265845
aF0.005813040423957139
aF0.011880770959984372
aF0.0066819257949601195
aF0.00869189063068759
aI0
aF0.0036032810531693204
aF0.002726052028708594
aF0.012910630443275055
aI0
aI0
aI0
aF0.0049717134012775745
aF0.00243765647503667
aF0.014937351731027969
aI0
aF0.014937351731027969
aF0.01815793540577119
aF0.003010138729279307
aI0
aI0
aI0
aF0.06174510959927426
aI0
aF0.027468169629390374
aF0.0022979309450479957
aF0.015905420636919763
aI0
aI0
aF0.00851885366234671
aF0.0013799415941414502
aF0.012042308786168203
aI0
aI0
aF0.0077562492218286325
aF0.008858850511239096
aI0
aF0.011169242094234741
aI0
aI0
aI0
aF0.04412109218884714
aF0.02044570903994042
aF0.023900217192002318
aF0.01651414582385202
aI0
aF0.002996561573836333
aF0.00851885366234671
aI0
aF0.014581474231617108
aI0
aF0.016529865891340777
aI0
aF0.0017954707623706748
aF0.0449311920431612
aF0.005666379706272435
aI0
aF0.009566819660204501
aI0
aI0
aF0.06449392633405886
aI0
aF0.0013799415941414502
aI0
aI0
aF0.05465922130928628
aI0
aF0.002726052028708594
aF0.00813693615919876
aF0.003964298810767381
aF0.0005579743805419046
aI0
aF0.02697263411140852
aI0
aF0.11889385959877145
aF0.0065996534639296296
aI0
aI0
aF0.001931528028947553
aI0
aF0.0062665863598631395
aI0
aF0.0011792889581401151
aF0.00017877089553191254
aF0.006003398323447788
aI0
aI0
aI0
aI0
aF0.00778150760479835
aF0.007399405391189665
aF0.010432632574345792
aF0.00017877089553191254
aI0
aI0
aF0.002537961014580879
aF0.009183756631004153
aF0.011372389942016128
aF0.012211985579320331
aF0.0004058518036731915
aF1.5905286574665173e-05
aF0.002305727402893836
aI0
aF0.008128642751343182
aI0
aF0.008858850511239096
aI0
aF0.01405096925650393
aF0.004436424095746507
aF0.20903886679343459
aF0.009393682999374021
aF0.08887679645213847
aI0
aF0.003792733060493259
aI0
aI0
aF0.007435930263432875
aF0.008381110207303142
aF0.00851885366234671
aF0.015327359419889929
aI0
aF0.09732832603269961
aF0.026293841115400406
aI0
aI0
aF0.010611089536999808
aI0
aI0
aI0
aI0
aF0.00017877089553191254
aF0.002726052028708594
aF0.009859280535060353
aF0.05777513448289072
aF0.07402607845370313
aF0.009062526570999572
aF0.0005579743805419046
aF0.00017877089553191254
aI0
aF0.006863645187460848
aF0.005157333472267575
aF0.001649438392144375
aF0.011510079706356612
aF0.006863645187460848
aI0
aI0
aF0.009933962611518745
aI0
aF0.05943266035863212
aF0.016529865891340777
aF0.03244506863967736
aF0.007051845063922614
aF0.0033408397096841612
aI0
aI0
aF0.002805166948636974
aI0
aI0
aF0.006504586735623318
aF0.010617869711191906
aF0.0013799415941414502
aI0
aI0
aI0
aF0.09195846480525921
aF0.19659614331885936
aF0.02211476389100611
aF0.007145367186706918
aF0.028715698152004275
aI0
aF0.11937614936532825
aF0.002726052028708594
aF0.0013799415941414502
aI0
aF0.013236492614151961
aF0.0006549304614101246
aI0
aF0.007051845063922614
aF0.0036953082281785533
aI0
aI0
aI0
aI0
aF0.004552921462462567
aF0.01912306937063679
aF0.16550907041326382
aI0
aI0
aF0.029911931549120512
aF0.0004085345586143285
aI0
aF0.015141704778686545
aI0
aF0.006863645187460848
aF0.014460613498332376
aF0.008515101993487768
aF0.014901087825409361
aI0
aF0.015099568035155135
aI0
aI0
aF0.012178127212772434
aI0
aF0.19714699892071766
aF0.12053138808112003
aF0.014901087825409361
aF0.08264157853231023
aF0.01144127233200009
aF0.01221325463853624
aI0
aI0
aI0
aI0
aF0.8619170716320345
aF0.01405096925650393
aF0.0025175719669834474
aI0
aF0.04124396490405107
aF0.0077944481744320095
aF0.0005579743805419046
aF0.00851885366234671
aF0.005310968418362084
aF0.07100740191785553
aF0.12143527318588283
aF0.06465877124781498
aF0.007632260778341507
aF0.14991413550845153
aF0.006212321929681072
aF0.22942288116380347
aF0.028276377317805357
aF0.2840158689384206
aF0.03863053169252208
aF0.10016940724337287
aF0.23842752369348766
aF0.0012091943772207497
aF0.015424235563616202
aF0.038504375723757686
aI0
aF0.00803316098447391
aF0.008883712760022491
aF0.004547964667194872
aI0
aF0.028711551806344174
aF0.21933827461303632
aF0.048660168066811706
aF0.0055628572832944955
aF0.11276321917381926
aF0.011007435149547072
aF0.106447822807936
aF0.015467816195164097
aF0.08019795630739177
aF0.01928869557564246
aF0.14345112244466207
aF0.08770439790910904
aF0.005371397782390682
aF0.008451214477037873
aI0
aF0.005385176647316921
aF0.0231160772167619
aF0.028642533890031966
aF0.00895250002617685
aF0.07740103535892023
aF0.19427690186591082
aF0.025852025867011456
aF0.007053200933434116
aF0.009112589657918157
aF0.17577786788849842
aF0.030345742605638885
aF0.008451214477037873
aF0.15290045373239422
aF0.09482832639210262
aF0.03343950651727205
aF0.16633213766574556
aF0.027715680408231923
aF0.053994535732620724
aF0.044400626084864954
aF0.0013478891297484749
aF0.01261320200047861
aF0.1251930865687807
aF0.004084516150982886
aI0
aF0.14991889067437544
aI0
aF0.012194347122998566
aF0.008977898925755994
aI0
aF0.00452646552514112
aI0
aF0.0029098532993338602
aI0
aF0.0052940246461042
aI0
aI0
aF0.014601348124867923
aF0.000698594262969462
aF0.30602373851979137
aF0.003009453879230567
aF0.014109182332138728
aF0.007338780801681219
aI0
aI0
aI0
aF0.009493488096451534
aF0.1793382668994031
aF0.03470822992768632
aF0.07001924198234644
aI0
aI0
aF0.005407861382783312
aF0.007001688855508963
aI0
aF0.007048860491837565
aI0
aI0
aF0.005061104078006313
aF0.0032645712796728586
aF0.005991400968310774
aI0
aF0.02998278090852853
aI0
aF0.027591698402746785
aI0
aF0.013597482751135334
aI0
aF0.010562443997308383
aI0
aF0.0010831834725970552
aF0.005032420958824758
aF0.005032420958824758
aF0.005578130871520773
aI0
aI0
aF0.007001688855508963
aF0.17455003742065972
aF0.0006035846820152516
aF0.007206997088440466
aF0.005722229547589902
aF0.00471084170263199
aI0
aI0
aF0.06808124229181636
aI0
aI0
aF0.007497326004273106
aI0
aF0.0018694569542987707
aF0.000200619513147592
aI0
aF0.012622554322645146
aI0
aF0.0001926185980609487
aI0
aI0
aI0
aI0
aF0.0022039869201054482
aI0
aF0.0023156973231393666
aI0
aF0.0018625100473530483
aI0
aF0.0018625100473530483
aF0.006944860532631826
aI0
aF0.0031805564989275848
aI0
aF0.018584858161346793
aF0.0003465519814503236
aI0
aF0.006917764105148859
aF0.011273887525770283
aI0
aF0.009646875432974968
aF0.00439128771175204
aI0
aF0.0029903040431014704
aI0
aI0
aI0
aF0.0040040019112051045
aF0.007729751011214076
aF0.024527339695166843
aI0
aF0.0018625100473530483
aF0.00943781478711553
aI0
aF0.001144637745075513
aF0.009394931938886393
aI0
aF0.005150906497516653
aF0.00527018171836774
aF0.012774992295824638
aF0.005713622975507491
aI0
aI0
aF0.00641751869309129
aF0.01833919638937409
aI0
aF0.008558178813457044
aF0.00641751869309129
aF0.00493216139570561
aF0.0026565708952087964
aF0.0001926185980609487
aF0.006812788429620319
aI0
aF0.007243878178297018
aF0.006418197219699565
aF0.009493488096451534
aI0
aF0.013122682817370572
aF0.0059625254760668454
aF0.016845025110175837
aI0
aF0.002937913158484419
aI0
aI0
aF0.06633297178752234
aF0.013115179519037222
aF0.007819692943130197
aF0.018326055659636922
aI0
aF0.000200619513147592
aI0
aI0
aI0
aI0
aF0.049501139364234815
aF0.00830500189270689
aI0
aF0.0020670173908402603
aI0
aF0.005716891905211632
aF0.002733493907722963
aF0.08686729523135678
aF0.009394931938886393
aF0.02383487955471172
aF0.009398388648764603
aI0
aF0.007878515249425441
aF0.0006610625744226944
aF0.01752785636745204
aF0.000200619513147592
aI0
aI0
aF0.0004789864715176019
aI0
aF5.63872831517689e-05
aF0.05904479876776504
aF0.0029903040431014704
aF0.003875914478337799
aF0.01607818412879729
aF0.04213263555966705
aI0
aI0
aF0.008962766415270869
aF0.011082177481339908
aI0
aI0
aI0
aF0.005192876748923693
aI0
aF0.006853286197065707
aF0.00019379161829263808
aF0.002733493907722963
aF0.033033009664207004
aF0.008209410352088782
aI0
aI0
aI0
aI0
aF0.0013410187789200975
aI0
aF0.006830428433583554
aI0
aI0
aI0
aF0.011054990102339903
aF0.0034995717456315226
aF0.001297550876014077
aF0.015754639290069965
aF0.011932000882515278
aF0.02597928125612467
aF0.013713076324372372
aI0
aI0
aI0
aF0.007819692943130197
aF0.004146204165987786
aF0.0006610625744226944
aF0.007001688855508963
aF0.0029139159122500958
aI0
aF0.0018625100473530483
aF0.012309003803911995
aF0.0024726417868821985
aF0.005992763725553987
aF0.008319476825748946
aI0
aI0
aI0
aF0.0023875252604040396
aF0.006473467827259189
aF0.015822424035727978
aF0.005992763725553987
aF0.0037954561884867865
aI0
aI0
aF0.005618480468187735
aI0
aF0.006735923019508733
aF0.012156241362898081
aI0
aI0
aF0.009398388648764603
aF0.0025242943660597297
aI0
aF0.01862460473817081
aI0
aI0
aF0.009398388648764603
aF1.3977010174811921
aF0.0026565708952087964
aF0.3020557886522288
aF0.00439331841091973
aF0.014963908522357766
aI0
aF0.008442840013219434
aF0.010917257710128147
aF0.009493488096451534
aF0.0023069205821101163
aF0.00830500189270689
aI0
aF0.009517048262546712
aI0
aI0
aF0.011483414940369578
aF0.0012175321800912467
aF0.011480523667385535
aF0.0025242943660597297
aF0.01170470803259685
aI0
aF0.007819692943130197
aF0.009398388648764603
aI0
aI0
aF0.0021679312158707814
aI0
aI0
aI0
aI0
aF0.0020670173908402603
aI0
aF0.004570760373694448
aF0.011273887525770283
aF0.07296548666475662
aI0
aI0
aF0.04601062684860931
aI0
aF0.007819692943130197
aI0
aF0.007243878178297018
aF0.00493216139570561
aI0
aF0.0016436142104166945
aF0.010182426946266997
aI0
aF0.0003465519814503236
aI0
aF0.0025744093945541334
aF0.0025242943660597297
aF0.024431278542431326
aI0
aI0
aF0.0003465519814503236
aF0.0532163874428004
aF0.3127240537680336
aF0.005032420958824758
aF0.009166413259949014
aF0.009646875432974968
aF0.1443011062150734
aI0
aI0
aF0.6690968669441772
aI0
aI0
aF0.0474901093261391
aF0.007989936778635413
aF0.007338780801681219
aF0.14810065788246246
aF0.00240722793005971
aI0
aF0.008352808136701072
aI0
aF0.00452646552514112
aI0
aF0.0041336038745408915
aI0
aF0.004748841125237866
aF0.012194347122998566
aF0.06355399541718287
aF0.0833967579821746
aI0
aF0.007457004606559665
aF0.07375678368912493
aI0
aF0.0082077090962305
aF0.014120371282818936
aF0.0012133086610148643
aI0
aI0
aF0.4412831041896387
aI0
aF0.008519751468002209
aF0.006405680260579748
aI0
aF0.009398388648764603
aF0.005607989483345537
aF0.006808262254450254
aF0.0020113683220444995
aF0.008977898925755994
aF0.000238691798223929
aF0.007947345214150223
aF0.009166413259949014
aI0
aF0.0024726417868821985
aI0
aF0.00904967434434032
aF0.04124250822366743
aF0.0006610625744226944
aF0.2550108216673345
aI0
aF0.010917257710128147
aF0.013479649434873913
aF0.007947345214150223
aI0
aF0.010460589791066465
aI0
aF0.00641751869309129
aF0.00318672170410488
aF0.010596172919463732
aF0.027939170685495205
aF0.00439128771175204
aF0.0016253913878125131
aI0
aF0.004701985752555743
aF0.00439128771175204
aI0
aF0.17324024504873473
aI0
aF0.0022730448734237805
aF0.017604342290975173
aF0.0011213447768976985
aF0.014945510581512746
aF0.007001688855508963
aI0
aF0.00439128771175204
aI0
aF0.011453160256352844
aF0.005555773829191264
aF0.7525518887743667
aF0.0023069205821101163
aF0.005032420958824758
aF0.0029903040431014704
aF0.0029727686349490775
aF0.004448628332801635
aF0.004220128184994187
aF0.06481637862212114
aF0.0038906509362429723
aF0.012366141268942352
aF0.0029903040431014704
aI0
aF0.3616281309548876
aF0.0040040019112051045
aF0.06497193142179325
aF0.009114298362205344
aI0
aF0.0029903040431014704
aI0
aF0.001971536400727844
aI0
aF0.007001688855508963
aI0
aF0.8813091063317938
aI0
aF0.004570760373694448
aI0
aF0.0029544863500242068
aI0
aI0
aF0.007947345214150223
aI0
aF0.0022730448734237805
aI0
aI0
aF0.007001688855508963
aF0.008609783035667598
aF0.012263496344144498
aF0.08878965687544525
aF0.005802189647382189
aF0.009398388648764603
aF0.00019379161829263808
aI0
aF0.007729751011214076
aF0.027377754728758138
aF0.02023174744706106
aI0
aF0.02024919133968576
aF0.002938373991063355
aF5.63872831517689e-05
aF0.5949217916369269
aF0.0029139159122500958
aF0.009398388648764603
aI0
aI0
aF0.007729751011214076
aF0.00012339349659761664
aF0.0028248124525924066
aF0.008790722808705673
aF0.015838919751305504
aF5.63872831517689e-05
aF0.0004029392646020924
aF0.009481049291626392
aI0
aF0.00878754493071711
aI0
aF0.011082177481339908
aF0.05882117623586916
aI0
aI0
aI0
aF0.013940684687747546
aF0.009114298362205344
aF0.024274352560090005
aF0.01178857882184107
aF0.08729720103134093
aF0.21302829458557268
aF0.0023156973231393666
aI0
aF0.0015117625929309793
aI0
aF0.00439128771175204
aF0.007338780801681219
aI0
aF0.17338362038863164
aF0.010990528317229147
aI0
aI0
aI0
aF0.0029544863500242068
aF0.0010967667354999896
aI0
aI0
aF0.0060862275644091145
aF0.01696974171225803
aF0.005555773829191264
aF0.8076560384594439
aI0
aF0.0016233518161124978
aF0.0027201868560961214
aF0.003875914478337799
aI0
aF0.007522291698347836
aI0
aF0.04554764336712782
aI0
aI0
aF0.09683846049517592
aF0.0036513666175241647
aF0.003032308622392399
aF0.00037405860207612277
aF0.011403301594438598
aF0.0003465519814503236
aI0
aF0.008893953209170379
aI0
aI0
aI0
aF0.00471084170263199
aI0
aI0
aF0.00878754493071711
aF0.008558178813457044
aF0.001040204402385989
aF0.012194347122998566
aI0
aF0.002135831782532248
aF0.0016292420004046177
aI0
aI0
aF0.007338780801681219
aF0.008609783035667598
aI0
aF0.07758619530671916
aF0.027403575426415493
aF0.0016436142104166945
aF0.0020670173908402603
aF0.013940684687747546
aF0.3383224622752686
aI0
aF0.002133216380284534
aF0.007729751011214076
aF0.11790116642893533
aF0.3281355127114993
aF0.0017268699244386476
aF0.00471084170263199
aF0.010965579665966943
aF0.00011737443205050718
aF0.007947345214150223
aF0.017482181630362154
aI0
aF0.00019379161829263808
aF0.0010430995434410554
aI0
aI0
aF8.527829305053946e-05
aI0
aF0.022723598925505534
aF0.0003465519814503236
aF0.04085872330524751
aF0.008209410352088782
aF0.3112906576541283
aI0
aF0.009299466768360045
aF0.0012254841092187079
aF0.02265413224875386
aF0.0029903040431014704
aI0
aF0.0052940246461042
aF0.003875914478337799
aF0.008209410352088782
aF0.011173225488940591
aF0.02420486029871048
aF0.0920224709539861
aI0
aF0.012194347122998566
aF0.001347511133502816
aI0
aF0.012955621503273155
aI0
aF0.005126665834218
aF5.63872831517689e-05
aI0
aF0.004475070956138594
aF0.0025242943660597297
aF0.01008711189863691
aI0
aF0.06263877611596777
aI0
aF0.031041654399108293
aF0.009493488096451534
aF0.007819692943130197
aI0
aF0.020740907503434727
aI0
aF0.0025242943660597297
aF0.018411810830579523
aF0.00943781478711553
aF0.015199777277841725
aI0
aI0
aI0
aI0
aF0.00830500189270689
aF0.0006035846820152516
aI0
aF0.0006610625744226944
aI0
aF0.007819692943130197
aF0.0192806059959247
aF0.009114842660446994
aF0.00641751869309129
aI0
aF0.009493488096451534
aF0.010965579665966943
aF0.0026076029217848283
aI0
aI0
aI0
aF0.04206410723488258
aF0.05543603322031855
aF0.0009691476428109148
aI0
aF0.0031848421513541534
aF0.0032645712796728586
aI0
aF0.012110007584538793
aF0.0762161345069406
aF0.08957711233441647
aF0.0063517047416083655
aF0.019100487864006036
aI0
aF0.021946468263281435
aI0
aF0.009398388648764603
aI0
aI0
aI0
aF0.0010831834725970552
aF0.008977898925755994
aF0.00493216139570561
aF0.0008363396847004189
aI0
aF0.009991956564388175
aF0.041067438839591776
aI0
aI0
aF0.004961481694676143
aF0.013053843017944756
aF0.007819692943130197
aF0.007914644732415264
aF0.005722229547589902
aI0
aF0.004927264438440795
aI0
aF0.021084105981720086
aF0.047093948714224725
aF0.006427265506225653
aF0.0068956705681647735
aF0.0029903040431014704
aI0
aF0.006286666011207544
aI0
aF0.030451523339584972
aI0
aF0.17534360808828794
aF0.00808061527165094
aI0
aI0
aF0.00830500189270689
aF0.026344156110912263
aI0
aF5.63872831517689e-05
aI0
aF0.00641751869309129
aF0.013623423281882291
aF0.3006381489176834
aI0
aI0
aF0.003854720881558147
aF0.0003116445613067538
aF5.63872831517689e-05
aF0.007819692943130197
aI0
aF0.20836721294298474
aF0.010484608812770116
aI0
aF0.0016292420004046177
aF0.0010831834725970552
aF0.0060862275644091145
aF0.002733493907722963
aF0.0025242943660597297
aI0
aI0
aI0
aI0
aF0.00641751869309129
aF0.003089336112922835
aI0
aF0.03358976105521392
aF0.0002672286717896221
aI0
aF0.0029544863500242068
aI0
aI0
aI0
aF0.00014488116755011088
aF0.009166413259949014
aF0.013069464299698432
aF0.00019379161829263808
aI0
aF0.03110531407064712
aF0.005713622975507491
aF0.018901870424470103
aF0.004084516150982886
aF0.0029098532993338602
aI0
aI0
aF0.030348588355256483
aI0
aF0.0001926185980609487
aF0.02218988606300007
aF0.022707057198408535
aF0.013940684687747546
aF0.005578130871520773
aF0.0029903040431014704
aI0
aF0.0008540635087993978
aF0.007819692943130197
aI0
aF0.009398388648764603
aF0.00947407126965446
aF0.03013982816064022
aI0
aF0.0007892822583773065
aF0.007729751011214076
aF0.005079775154054431
aF0.0003616718006991172
aI0
aF0.003032308622392399
aF0.0031848421513541534
aF0.0010831834725970552
aF0.044175665127527894
aF0.013750104337505373
aF0.003032308622392399
aF0.0003465519814503236
aF0.0068925465593645055
aI0
aF0.003875914478337799
aI0
aF0.009232135570130251
aI0
aF0.006033009372267164
aF0.005992763725553987
aF0.05467322297821897
aF0.0029903040431014704
aF0.007442001691979524
aF0.007338780801681219
aF0.011538448057038943
aF0.005032420958824758
aI0
aF0.006812788429620319
aF0.043398985591913186
aF0.0015895568967971049
aI0
aF0.009555189219137335
aF0.011273887525770283
aI0
aF0.0191464512313926
aF0.005992763725553987
aI0
aF0.00439128771175204
aF0.01306101034927112
aF0.00947407126965446
aF0.001688917474942424
aF0.005618480468187735
aF0.013876896168419113
aF0.05826027498160325
aF0.005032420958824758
aF0.012543010630025102
aF0.007729751011214076
aF1.20332606396125
aF0.007522291698347836
aI0
aF0.04243109317483823
aI0
aF0.0007892822583773065
aF0.00025183214795829027
aF0.00019379161829263808
aF0.020325137626487102
aF0.29824726821457054
aI0
aF0.015161516895617785
aF0.008155023475423838
aF0.1053819918105232
aI0
aF0.0008363396847004189
aI0
aI0
aF0.002486062246856436
aI0
aF0.0012175321800912467
aI0
aF0.29793048336231703
aF0.0029727686349490775
aF0.0001926185980609487
aI0
aF0.0186101449186507
aF0.07777867037265655
aF0.0009691476428109148
aI0
aI0
aI0
aF0.029241572911285683
aF0.011804937351743486
aI0
aF0.011082177481339908
aF0.04253936951932534
aF0.012764188781246997
aF0.00368122808566643
aF0.0016436142104166945
aF0.05539693579717689
aF0.007729751011214076
aF0.0001063827396117358
aF0.5422292575644567
aF0.0071684288836064095
aF0.0009691476428109148
aF0.00494953173832216
aI0
aF0.0020670173908402603
aI0
aF0.008079329608104638
aI0
aF0.006608883205822372
aI0
aI0
aF0.0029544863500242068
aF0.009205304812986367
aF0.0858605087279929
aF0.03347020410599584
aF0.006473467827259189
aI0
aF0.002733493907722963
aI0
aI0
aF0.0025242943660597297
aI0
aF0.46548451551197373
aF0.006185193300753247
aF0.002349874084901382
aF0.001231769348893823
aI0
aF0.01198049348850205
aI0
aI0
aI0
aF0.0003465519814503236
aF0.008908335437162558
aF0.01697858243317304
aI0
aF8.041684085574515e-05
aI0
aI0
aF0.006838042544130064
aF0.04302856106979807
aF0.009991956564388175
aF0.004557752480033508
aF0.009804691879918013
aI0
aI0
aF0.009225981824778913
aI0
aI0
aI0
aF0.005618480468187735
aF0.0109383535537459
aF0.0025242943660597297
aI0
aF0.009820996259123999
aF0.6244100855060895
aI0
aF0.17744677549299329
aI0
aF0.6955923824323431
aF0.020398431993275016
aF0.008977898925755994
aI0
aF0.010712783772480826
aF0.011082177481339908
aF0.005607989483345537
aF0.007522291698347836
aF0.0004239496686402953
aF0.0006610625744226944
aF0.003929786765120839
aF5.63872831517689e-05
aF0.013479649434873913
aF0.00012339349659761664
aI0
aF0.39111930183023835
aF0.007819692943130197
aI0
aI0
aF0.007401397855192393
aI0
aF0.03448325662905919
aI0
aF0.018560321515727226
aI0
aI0
aF0.0012254841092187079
aI0
aF0.008519751468002209
aF1.0322184586351195
aF0.02216540847344244
aI0
aF0.002827822809222858
aI0
aF0.00452646552514112
aI0
aI0
aF0.0024579296128608165
aF0.0020670173908402603
aF0.0006588386422262894
aF0.006830428433583554
aF0.00368122808566643
aF0.011942338961227043
aI0
aF0.00045210984978036095
aI0
aF0.0023069205821101163
aF0.008533926454238398
aF0.054690984588903695
aF0.014921965867385282
aF0.011082177481339908
aF0.003875914478337799
aF0.005713622975507491
aI0
aF0.0013002063369692276
aF0.006937179840948401
aF0.34563004304640144
aF0.010083108460043727
aI0
aF0.005607989483345537
aF0.005815389287126584
aF0.014957093655769551
aF0.003875914478337799
aF0.00010854955824403507
aI0
aI0
aF0.03038293640645123
aF0.11973130908723625
aI0
aF0.005988832476636588
aF0.0033129112254891013
aF0.008302142879648356
aF0.009299466768360045
aF0.008302142879648356
aF0.005578130871520773
aF0.00439128771175204
aF0.00011262440121373552
aF0.055828547754776865
aI0
aF0.011668713298901933
aF0.06221024811176944
aF0.007233815420300617
aF0.0018625100473530483
aF0.00494953173832216
aI0
aI0
aI0
aF0.001555273317304391
aI0
aF0.03511544033238281
aF0.004384593794852838
aI0
aF0.0009691476428109148
aF0.0013478891297484749
aI0
aI0
aF0.027995558951343962
aF0.008519751468002209
aI0
aF0.023501640846002814
aF0.04895570567381456
aI0
aF0.00011737443205050718
aF0.008058768567800753
aF0.007243878178297018
aF0.010098337139710785
aI0
aI0
aF0.001746504012597254
aI0
aI0
aI0
aI0
aF0.008209410352088782
aF0.003469984974005232
aF0.005879787018011373
aI0
aI0
aF0.010848218683131993
aI0
aI0
aF0.04875679498524954
aI0
aI0
aI0
aF0.04256659234231876
aI0
aI0
aF0.013337999470425565
aF0.021800624805517376
aF0.0029139159122500958
aF0.005607989483345537
aF0.0014236751769846905
aI0
aF0.0023156973231393666
aI0
aF4.54558398993932e-05
aF0.009166413259949014
aI0
aF0.12465988164575159
aI0
aF0.0011341952333375166
aF0.004570760373694448
aI0
aF0.00439128771175204
aF0.003875914478337799
aF0.006812788429620319
aF0.020147800345287795
aI0
aF0.0013607663241879103
aI0
aF0.00439128771175204
aF0.009394931938886393
aF0.029731868034569363
aF0.0008363396847004189
aF0.0025242943660597297
aF0.00010854955824403507
aF0.003016721887120062
aI0
aF0.0023156973231393666
aF0.007522291698347836
aF0.005618480468187735
aI0
aI0
aF0.00017311034764984148
aI0
aF0.01696974171225803
aI0
aF0.028128055373329817
aF0.003875914478337799
aF0.6562644518608302
aF0.006944860532631826
aI0
aI0
aF0.01198049348850205
aI0
aI0
aF0.0066576386682766185
aI0
aF0.0025242943660597297
aF0.008437254582860605
aF0.004557752480033508
aF0.005032420958824758
aF0.05888753607231017
aF0.0046656535550717165
aF0.0009416890026845904
aF0.009367655176055244
aI0
aF0.008977898925755994
aF0.21283775276240507
aF0.008352808136701072
aI0
aF0.0020670173908402603
aF0.00826720219008984
aF0.003998512217224766
aF0.008893953209170379
aI0
aF0.002937913158484419
aF0.0016436142104166945
aI0
aF0.0031848421513541534
aF0.01291768878312883
aI0
aI0
aI0
aI0
aF0.014002900149793981
aF0.002423355088959242
aI0
aI0
aI0
aI0
aF0.00830500189270689
aF0.35182109878865536
aF0.0051192401243581745
aF0.007947345214150223
aF0.00015606964251063243
aI0
aF0.003875914478337799
aF0.034972347257021016
aF0.005560643004951831
aF0.001555273317304391
aF0.0016233518161124978
aF0.005702079452777799
aF0.007591686501888673
aF0.00493216139570561
aI0
aI0
aI0
aF0.00830500189270689
aI0
aI0
aI0
aI0
aF0.0012133086610148643
aF0.002733493907722963
aF0.01045180680090943
aI0
aF0.0025242943660597297
aF0.01198049348850205
aI0
aF0.003875914478337799
aF0.00830500189270689
aF0.0022730448734237805
aF0.0010403794523482206
aI0
aF0.00439128771175204
aF0.01751424826273601
aF0.07546331793028126
aI0
aF0.0008075280077385784
aF5.63872831517689e-05
aI0
aF0.011667976812310172
aF0.01198049348850205
aF0.02501715029256365
aF0.0023069205821101163
aF0.04191410520761469
aF0.04293388716464334
aI0
aF0.0028248124525924066
aF0.03638708181137217
aI0
aI0
aI0
aF0.0008363396847004189
aI0
aI0
aF0.000696018811254119
aI0
aF0.00011737443205050718
aF0.0013478891297484749
aF0.000775840742939817
aI0
aI0
aF0.016538245968535557
aF0.0020670173908402603
aF0.03680102435835503
aF0.007338780801681219
aI0
aI0
aF0.014349088578328999
aI0
aF0.000200619513147592
aF0.0025242943660597297
aF0.006830428433583554
aF0.0006224302615266589
aI0
aI0
aI0
aF0.00019323254745760174
aF0.04227457343705017
aI0
aI0
aF0.048359530999027206
aF0.17419892400651935
aF0.012524991752016337
aI0
aI0
aF0.2537550580336726
aI0
aF0.021759411469246353
aI0
aF0.0018625100473530483
aF0.00368122808566643
aI0
aF0.009493488096451534
aF0.00439128771175204
aF0.0029903040431014704
aI0
aI0
aF0.0001063827396117358
aI0
aF0.008907154232759935
aF0.007401397855192393
aF0.0025242943660597297
aF0.17269641471220895
aF0.007243878178297018
aF0.013797859506486947
aF0.011082177481339908
aF0.2890994286417814
aI0
aF0.002733493907722963
aI0
aF0.011082177481339908
aF0.4439398934257825
aI0
aF0.0017177092427739077
aI0
aF0.01025817863607887
aI0
aF0.00493216139570561
aI0
aF0.02369360281488358
aF0.002663018299906519
aF0.003293132131283461
aI0
aI0
aF0.00059865370870294
aI0
aF0.09280452823251659
aI0
aF0.006408790333978701
aI0
aF0.0022730448734237805
aF0.17832766103636713
aF0.009646875432974968
aF0.0009536543555189041
aF0.021784198286887695
aF0.0025242943660597297
aI0
aI0
aF0.0005657115683469186
aF0.008609783035667598
aI0
aF0.0029903040431014704
aF0.007338780801681219
aF0.007819692943130197
aF0.379878919557338
aI0
aF0.01025817863607887
aF0.006595946270718092
aF0.0017177092427739077
aF0.00019379161829263808
aI0
aF0.023715908937310223
aF0.08298559145011193
aF0.007693367010000284
aI0
aI0
aF0.006544937513560864
aF0.007152380350887015
aF0.15216326362901855
aI0
aF0.03501040805190879
aF0.00947407126965446
aF0.006735923019508733
aI0
aI0
aF0.01819341997753042
aF0.030066543677382998
aI0
aI0
aI0
aF0.007243878178297018
aF0.03494835252379645
aI0
aF0.0022730448734237805
aI0
aF0.015077869177381199
aF0.003854720881558147
aF0.0059625254760668454
aI0
aI0
aI0
aF0.016353662679824712
aI0
aI0
aF0.0006588386422262894
aF0.026547380007083968
aF0.016799938741512088
aF0.019834701531024703
aF0.01731208688202464
aI0
aI0
aI0
aF0.0002672286717896221
aF0.00641751869309129
aF0.05471734212789893
aI0
aI0
aF0.005527400920446157
aI0
aI0
aF0.0077752857058275395
aI0
aF0.010183040724552908
aI0
aF0.0016436142104166945
aF0.014572596221981836
aF0.38890839505928115
aF5.63872831517689e-05
aI0
aF0.000200619513147592
aI0
aI0
aF0.006473467827259189
aI0
aF0.0022730448734237805
aI0
aF0.0010831834725970552
aF0.0003116445613067538
aF0.008302142879648356
aF0.009493488096451534
aF0.0016668343550526165
aF0.03930374156927887
aF0.0022730448734237805
aI0
aI0
aF0.011082177481339908
aI0
aI0
aF0.007401397855192393
aF0.00957161278676978
aF0.0025242943660597297
aF0.012905924284481804
aF0.030005830714307007
aF0.003469984974005232
aF0.020672276174534883
aI0
aF0.018736950653258345
aF0.038200320267839954
aF0.09598598943994555
aF0.012579893325346963
aF0.001555273317304391
aF0.0009691476428109148
aI0
aF0.008302142879648356
aF0.009646875432974968
aF0.0009691476428109148
aI0
aF0.00641751869309129
aI0
aF0.0071684288836064095
aF0.0020946957684849065
aI0
aI0
aF0.011513964124976548
aI0
aF0.010980251333753964
aI0
aI0
aI0
aI0
aF0.0013478891297484749
aI0
aF0.0014644919780956904
aF0.019746492199721657
aF0.005388573849477737
aI0
aI0
aF0.010609256338180625
aF0.009166413259949014
aF0.025140449602434237
aF0.31521062342801687
aF0.0001926185980609487
aI0
aF0.0013381026049099428
aF0.013479649434873913
aI0
aF0.00019379161829263808
aI0
aF0.00641751869309129
aF0.012443420648246193
aI0
aI0
aI0
aF0.0020946957684849065
aF0.0020670173908402603
aF0.06134517385801672
aF0.007338780801681219
aF0.0011285991790944178
aF0.000200619513147592
aF0.005371594213494037
aI0
aI0
aI0
aI0
aF0.004094037005659164
aF0.007016158826159329
aF0.009166413259949014
aF5.63872831517689e-05
aI0
aF0.0050033282093660675
aF0.016196225063495526
aI0
aI0
aF0.0006610625744226944
aF0.04125346319856876
aF0.04532336185802925
aF0.0023069205821101163
aF0.0012196830970812847
aI0
aI0
aI0
aF5.63872831517689e-05
aF0.00714679254489469
aF0.010989082210585435
aF0.01198049348850205
aF0.06507014521516888
aF5.63872831517689e-05
aI0
aF0.0024726417868821985
aI0
aF0.008155023475423838
aF0.0036192122832373547
aI0
aF0.0022730448734237805
aF0.001746504012597254
aF0.009232135570130251
aF0.00830500189270689
aI0
aF0.01198049348850205
aF7.1580990265242e-05
aI0
aF0.08757398923963218
aI0
aF0.008649439186805804
aI0
aF0.008074308695468671
aF0.003875914478337799
aF0.01125611873675054
aF0.017867252653081717
aI0
aI0
aI0
aF0.024634321217158837
aF0.012699408726372752
aF0.007048860491837565
aF0.00683331856822017
aI0
aF0.007819692943130197
aF0.010965579665966943
aF0.006483157802380142
aF0.006235141863689991
aF0.01589646216442238
aI0
aI0
aF0.02358340762409603
aI0
aF0.009050715642563986
aF0.06331867076432564
aF0.005578130871520773
aF0.0051108491351870905
aF0.019605420729408192
aF0.0012254841092187079
aI0
aI0
aF0.008028044005228881
aF5.63872831517689e-05
aF0.012578816741089646
aF0.003875914478337799
aF0.30249870635015513
aI0
aI0
aF0.012316351259751338
aI0
aF0.004561289712197574
aI0
aF0.008352808136701072
aF0.0029544863500242068
aF0.09583342026690488
aF0.0029544863500242068
aF0.011173225488940591
aF0.011070550609959658
aF0.0967961452368463
aF0.006265980510501935
aI0
aF5.63872831517689e-05
aI0
aF1.3248431089434758
aI0
aF0.0059625254760668454
aI0
aF0.13283688310391603
aF0.00019379161829263808
aI0
aF0.06440525971156741
aF0.0003465519814503236
aF0.010524758048405025
aF0.016361264637348914
aF0.008155023475423838
aI0
aI0
aF5.63872831517689e-05
aF0.04560673818082801
aF0.01454442342828096
aF0.018609178336193067
aI0
aF0.010965579665966943
aF0.009299466768360045
aI0
aI0
aF0.0003465519814503236
aF0.010524758048405025
aI0
aF0.012389518043689776
aF0.0025242943660597297
aF0.011862849392408312
aF0.008352808136701072
aF0.0006035846820152516
aF0.0020670173908402603
aF0.008893953209170379
aI0
aF0.007947345214150223
aF0.0024726417868821985
aF0.004557752480033508
aI0
aF0.004134941788176984
aI0
aI0
aF0.5819614519452051
aF0.002685908289790672
aF0.013337999470425565
aI0
aF0.020240009866873052
aI0
aF0.0025242943660597297
aF0.003983308658627244
aF0.012663459409054908
aF0.2931846310311367
aF0.008209410352088782
aF0.00583492471360062
aF0.0014109478086815998
aF0.0031848421513541534
aI0
aI0
aI0
aF0.013237801580287215
aI0
aF0.014109182332138728
aF1.1877411634166066e-05
aI0
aI0
aF0.04194497000996025
aI0
aF0.3452915269427721
aF5.63872831517689e-05
aF0.007001688855508963
aI0
aF0.0029139159122500958
aF0.0004170197221249875
aF0.00733543596886215
aI0
aF0.08597870208023606
aF0.009493488096451534
aI0
aF0.09908967770721756
aI0
aI0
aI0
aI0
aF0.00670621851186612
aI0
aI0
aF0.008352808136701072
aF0.012194347122998566
aF0.03015976176557687
aF0.00029225949439399895
aI0
aF0.009394931938886393
aI0
aI0
aF0.02628508352036541
aF0.007819692943130197
aF0.009646875432974968
aF0.0846818519916919
aI0
aF0.0002032410099542623
aI0
aI0
aF0.1793732977402354
aI0
aF0.003613275784443158
aI0
aF0.011082177481339908
aF0.009641765032292377
aF0.011082177481339908
aF0.0029903040431014704
aF0.008558178813457044
aF0.01173006851343326
aF0.011260720697168679
aF0.005815389287126584
aF0.013069464299698432
aF0.000775840742939817
aF5.63872831517689e-05
aF0.012045764143520581
aI0
aF0.004557752480033508
aF0.01025817863607887
aI0
aI0
aF0.000200619513147592
aF0.0007197588650619831
aI0
aI0
aF0.005032420958824758
aI0
aF0.009752396617149963
aF0.0011213447768976985
aF0.772571359981508
aI0
aF0.00708515071617846
aF0.003998512217224766
aF0.011070935313329205
aI0
aI0
aI0
aI0
aI0
aF0.0012133086610148643
aF0.0018581346257590759
aF0.003875914478337799
aF0.0006610625744226944
aF0.026750843228789782
aF0.0001926185980609487
aI0
aF0.026726544810145324
aF0.00439128771175204
aI0
aF0.00028912761813930463
aF0.05884996262864265
aI0
aF0.005713622975507491
aF0.021680861630827615
aF0.0010403794523482206
aF0.001746504012597254
aI0
aF0.0060862275644091145
aI0
aF0.003924189158388905
aI0
aI0
aI0
aI0
aI0
aF0.007947345214150223
aI0
aF0.0009691476428109148
aI0
aF0.001144637745075513
aI0
aF0.0019849187563445395
aF0.8384278311554225
aI0
aI0
aF0.0024649986284562965
aI0
aF0.009166413259949014
aF0.049748549469494745
aF0.0024793195803316757
aF0.0004035167045912328
aF0.000200619513147592
aF0.008352808136701072
aF0.003032308622392399
aI0
aF0.0010888830147219152
aI0
aF0.010965579665966943
aI0
aF0.2469227868428905
aF0.00878754493071711
aF0.0029139159122500958
aF0.004094037005659164
aF0.005032420958824758
aF0.013069464299698432
aF0.005032420958824758
aI0
aF0.008352808136701072
aI0
aF0.06840443815711411
aF0.014696010600076713
aF0.0010168102685182252
aI0
aI0
aF0.008893953209170379
aF0.009991956564388175
aI0
aF0.11865265415924722
aF0.5031676561161464
aI0
aF0.060740215480361105
aF0.0025242943660597297
aI0
aI0
aI0
aF0.007819692943130197
aF0.011082177481339908
aF0.01449662174655121
aF0.00368122808566643
aF0.007001688855508963
aI0
aI0
aF0.08798048889368991
aF0.0016436142104166945
aF0.00641751869309129
aF0.0029903040431014704
aF0.00493216139570561
aI0
aI0
aF0.009646875432974968
aF0.016496088269311263
aI0
aF0.38905564887054445
aF0.005544551548989456
aF0.009232135570130251
aF0.0018694569542987707
aF0.03178493963358936
aI0
aF0.01012978603728531
aF0.0024726417868821985
aF0.46866916391883573
aF0.012366141268942352
aF0.008209410352088782
aF0.00014488116755011088
aI0
aI0
aI0
aF0.009752396617149963
aI0
aF0.011082177481339908
aF0.040130817882599305
aF0.0012826164536346024
aF0.0022367509043028293
aF0.0077813348067747624
aF0.011453160256352844
aF7.977980727754057e-05
aI0
aI0
aF0.01198049348850205
aF0.03066002525489308
aI0
aF0.009398388648764603
aF0.013261863366018662
aI0
aF0.04982845797553429
aF0.002834555357891038
aF0.0025242943660597297
aI0
aF0.00830500189270689
aF0.009357460181383608
aF0.0018625100473530483
aF0.00275576392132971
aI0
aF0.004780584867326274
aI0
aF0.9383011057317302
aF0.00368122808566643
aF0.01281067664513105
aF0.12873095046985408
aF0.016412720222994545
aI0
aF0.0003465519814503236
aF0.00641751869309129
aF0.00118061969636691
aI0
aI0
aF0.008183714085704487
aI0
aI0
aF0.0010831834725970552
aF0.007634872597283802
aF0.3695533314660341
aF0.0029139159122500958
aF0.01198049348850205
aF0.0036069916885375377
aF0.009646875432974968
aF0.006781655181737725
aF0.015739257114721603
aI0
aI0
aF0.013750104337505373
aF0.021094528305824332
aF0.00019323254745760174
aF0.017179159450106868
aI0
aF0.0012254841092187079
aF0.0050033282093660675
aF0.00034531797639465907
aF0.034994030875764456
aI0
aF0.009573154857897294
aF0.019539566476716647
aF0.011804937351743486
aI0
aI0
aF0.6178299509608818
aF0.00030116815630497877
aI0
aF0.02494156917300266
aF0.007243878178297018
aF0.004372150798094265
aF0.007729751011214076
aI0
aI0
aF0.0029544863500242068
aI0
aI0
aF1.398231828315422
aF0.0258159322781884
aF0.0071684288836064095
aF0.06175763724709827
aI0
aF0.003875914478337799
aI0
aI0
aF0.0059625254760668454
aI0
aF0.056384121403803784
aF0.009232135570130251
aI0
aI0
aI0
aF0.009038856558328248
aI0
aF0.011082177481339908
aF7.826581558896923e-05
aF0.0001063827396117358
aI0
aF0.009493488096451534
aF0.0027920440857267543
aI0
aI0
aI0
aF0.006955474261829401
aF0.05111597242134981
aF0.0016748282216636145
aF0.023556014479882075
aF0.007243878178297018
aF0.029785079173373044
aI0
aI0
aF0.005032420958824758
aF0.05971446329766044
aF0.016804964069008603
aI0
aF0.0076083082365861745
aF0.0025242943660597297
aF0.00493216139570561
aF0.007001688855508963
aI0
aF0.00020309500306271808
aI0
aF0.00011737443205050718
aF0.025272411003824498
aI0
aF0.005079775154054431
aF0.010378233396890372
aF1.5668504467597848
aF0.00032516762642989213
aF0.0029544863500242068
aI0
aI0
aF0.009423708670576798
aI0
aF0.0012254841092187079
aI0
aF0.0018694569542987707
aF0.00059865370870294
aF0.009425907967362477
aI0
aI0
aF0.00318672170410488
aF0.005713622975507491
aF0.05541497438992396
aF0.03286313946131176
aF0.0011828916661507426
aF0.0003407284937465459
aF0.007642540393538162
aI0
aF0.0010801658062706662
aI0
aI0
aI0
aF0.046591211890779284
aI0
aF0.007819692943130197
aF0.03898928544781079
aF0.0003116445613067538
aF0.02457161143415494
aF0.006781655181737725
aF0.013940684687747546
aF0.01395611331094875
aF0.007401397855192393
aI0
aF0.0059625254760668454
aF0.007819692943130197
aF0.011862849392408312
aF0.012097759636292593
aI0
aF0.0030176984204041634
aF0.0040265517889011325
aI0
aI0
aI0
aF0.0012826164536346024
aI0
aI0
aF0.0020670173908402603
aF0.009493488096451534
aF0.006812788429620319
aI0
aF5.63872831517689e-05
aF0.00011737443205050718
aI0
aI0
aI0
aF0.10308560254613175
aF0.004223463885083912
aF0.006812788429620319
aI0
aF0.23130752594527135
aF0.007401397855192393
aI0
aF0.008210141976084481
aF0.007001688855508963
aF0.428509258266196
aF0.008893953209170379
aI0
aF0.028718978837341563
aF0.0029903040431014704
aF0.002423355088959242
aI0
aF0.000200619513147592
aI0
aF0.0003465519814503236
aI0
aI0
aF0.002423355088959242
aI0
aI0
aF0.001574033341961575
aI0
aI0
aF0.008558178813457044
aF0.09505593440368391
aI0
aI0
aI0
aF0.0008363396847004189
aI0
aF0.0010743117236282562
aF0.013976152723024006
aF0.006955474261829401
aF0.010461113153554278
aF0.00878754493071711
aI0
aF0.00826720219008984
aF0.0003116445613067538
aF0.0025242943660597297
aF0.00439128771175204
aF0.39403732444384754
aF0.0006588386422262894
aF0.015473051558779488
aF0.006812788429620319
aI0
aF0.0020670173908402603
aI0
aF5.63872831517689e-05
aF0.0016233518161124978
aF0.002095437361861418
aF0.08440357677958522
aF0.03278222372947507
aF0.007001688855508963
aF0.011412559192258536
aI0
aF0.014400672526742823
aI0
aF0.0029903040431014704
aF0.010965579665966943
aF0.015350482331605358
aI0
aF5.63872831517689e-05
aF0.004641040086370384
aF0.012980694854026474
aI0
aI0
aI0
aI0
aI0
aF0.0020670173908402603
aF0.006812788429620319
aF0.6766094902812244
aI0
aI0
aI0
aF0.01574815607039192
aI0
aI0
aI0
aF0.00943781478711553
aI0
aI0
aF0.007947345214150223
aF0.0025242943660597297
aI0
aF0.05291331726863691
aF0.000200619513147592
aF0.0012254841092187079
aF0.008519751468002209
aI0
aF0.005079775154054431
aF0.008558178813457044
aI0
aF0.0003116445613067538
aI0
aI0
aI0
aF0.005032420958824758
aF0.0020670173908402603
aF0.025214572213517826
aF0.007947345214150223
aF0.06986432471376552
aF0.06350200222101782
aI0
aF0.011273887525770283
aI0
aF0.007522291698347836
aF0.0529086554451576
aF0.00439128771175204
aI0
aF0.0036192122832373547
aF0.009568343857065639
aF0.0022039869201054482
aI0
aF0.013962495524998743
aF0.05765259448857133
aF0.018528651046184303
aF0.008893953209170379
aF0.013479649434873913
aF0.017956567462221646
aF0.626656019008036
aI0
aF0.00019379161829263808
aF0.012204904205079328
aF0.00493216139570561
aI0
aI0
aF0.011173225488940591
aF0.0003465519814503236
aF0.007729751011214076
aI0
aI0
aF0.006830428433583554
aF0.025294702736759753
aF0.0052940246461042
aI0
aF0.014317223114667349
aI0
aF0.021203090947836314
aF0.038982115174452145
aI0
aI0
aF0.0012254841092187079
aI0
aI0
aI0
aI0
aF0.019680060585718227
aF0.013069464299698432
aF0.0026938532005235183
aI0
aF0.00493216139570561
aI0
aF0.01761255135164322
aI0
aI0
aI0
aI0
aI0
aF0.005992763725553987
aF0.000200619513147592
aF0.24317631301500717
aF0.00992821295786035
aI0
aF0.002966827250522256
aF0.057004279604615335
aF0.0029903040431014704
aI0
aF0.0058932021977733
aI0
aI0
aF0.0003465519814503236
aF0.0012254841092187079
aF0.007522291698347836
aF0.0095552444225117
aF0.12986850740322586
aF0.003076434288706182
aF0.0029727686349490775
aI0
aF0.0008363396847004189
aI0
aF0.007001688855508963
aF0.003875914478337799
aF0.0003116445613067538
aF0.0006610625744226944
aI0
aF0.010686915588586135
aF0.02871878378861104
aI0
aF0.004322738427608569
aF0.008558178813457044
aF0.007522291698347836
aF0.0016233518161124978
aF0.007947345214150223
aF0.010965579665966943
aF0.009232135570130251
aI0
aI0
aF0.018252712227381836
aI0
aI0
aF0.006777670769140204
aF0.0115107870756216
aF0.0029903040431014704
aI0
aF0.009398388648764603
aF0.009991956564388175
aF0.0010801658062706662
aI0
aI0
aF0.011323555414599082
aF5.63872831517689e-05
aF0.000200619513147592
aI0
aI0
aI0
aF0.02552044391250007
aF0.01947543652358519
aF0.00932471867117493
aF0.00861744310781699
aI0
aI0
aI0
aF0.008609783035667598
aI0
aI0
aF0.009770031988283986
aF5.63872831517689e-05
aF0.0018694569542987707
aF0.0011341952333375166
aF0.008558178813457044
aF0.01045180680090943
aI0
aI0
aF0.28556620337968036
aI0
aI0
aF0.000200619513147592
aF0.0029903040431014704
aI0
aF0.00641751869309129
aF0.007729751011214076
aF0.0001926185980609487
aF0.0023156973231393666
aF0.011082177481339908
aI0
aF0.008977898925755994
aI0
aF0.00030116815630497877
aF0.0001926185980609487
aF0.017973215257430012
aF0.012839544307205169
aF0.0029544863500242068
aF0.009448861682918022
aF0.07957232161509267
aF0.0020670173908402603
aF0.013069464299698432
aF0.0013478891297484749
aF0.01045180680090943
aF0.001144637745075513
aI0
aF0.0016972157439859737
aI0
aI0
aI0
aF0.021772460184073358
aF0.010965579665966943
aF0.0014236751769846905
aF0.0068956705681647735
aF0.5136936082837088
aI0
aI0
aF0.0060862275644091145
aF0.008155023475423838
aF5.63872831517689e-05
aI0
aI0
aF0.0357027473017129
aF0.0007197588650619831
aF0.012543010630025102
aF0.010090229475614219
aF0.007522291698347836
aI0
aI0
aF0.24075234734293582
aF0.007729751011214076
aF0.000200619513147592
aF0.0023156973231393666
aI0
aF0.009398388648764603
aF0.0029139159122500958
aI0
aF0.007145904724574593
aF0.0025242943660597297
aF0.009232135570130251
aF0.01702342230317774
aF0.2670817588318599
aI0
aF0.5136563109903421
aF0.0004223827567649763
aF0.009504329551582572
aF0.0002688128981117297
aF0.0029903040431014704
aF0.016505524027607268
aI0
aF0.0028066690289261227
aF0.10910101925836671
aF0.005992763725553987
aF0.02647660967979138
aF0.008609783035667598
aI0
aF0.00016625692668972982
aF0.037126506239332425
aI0
aI0
aF0.00943781478711553
aF0.005618480468187735
aF0.2297709979641579
aI0
aI0
aI0
aF0.7292138034606078
aF0.0029903040431014704
aF0.00011737443205050718
aI0
aF0.0023156973231393666
aF5.63872831517689e-05
aI0
aI0
aF0.006944860532631826
aI0
aF0.006735923019508733
aF0.0009820388209370022
aI0
aI0
aF0.007338780801681219
aF0.01193724630320163
aI0
aF0.0003465519814503236
aF0.009991956564388175
aI0
aF0.007338780801681219
aI0
aI0
aI0
aF0.1594874624831875
aI0
aI0
aI0
aF0.0006588386422262894
aF0.029012420659267863
aI0
aI0
aI0
aI0
aF0.015303204905672331
aI0
aF0.00493216139570561
aF0.013922595478756485
aF0.009752396617149963
aF0.0028066690289261227
aF0.007048860491837565
aI0
aI0
aF0.005061104078006313
aI0
aF0.0025242943660597297
aF0.005618480468187735
aF0.0009820388209370022
aI0
aI0
aF0.007819692943130197
aI0
aF0.19794610468203724
aF0.000200619513147592
aI0
aI0
aF0.005032420958824758
aF1.2158766279922937
aF0.0023916013450598203
aI0
aI0
aF0.0008667435612138462
aI0
aI0
aF0.016626850474222684
aF0.002575417679478775
aF0.003925703589507785
aF0.0052940246461042
aI0
aF0.4057891235313655
aF0.007012120133953534
aF0.00019379161829263808
aF0.0003465519814503236
aF0.00808061527165094
aI0
aF0.0031848421513541534
aF0.15533863305428924
aF0.01025817863607887
aF0.19994190423656788
aI0
aI0
aF0.020904237033099595
aF0.008558178813457044
aI0
aF0.007145904724574593
aI0
aF0.0029903040431014704
aF0.008660936282354682
aI0
aF0.011804937351743486
aF0.0010403794523482206
aI0
aF0.3088025853027463
aF0.005618480468187735
aF0.08320632581358105
aF0.011420523910527277
aF0.00641751869309129
aF0.01291768878312883
aF0.006415982590455696
aI0
aF0.002133216380284534
aF0.00015961351301639655
aF0.29273167218966917
aF0.0071684288836064095
aF0.011430838034398563
aF0.04549291659647753
aF0.001746504012597254
aF0.02453012685113339
aF0.0009691476428109148
aF0.0029139159122500958
aI0
aF0.00498388453277569
aI0
aF0.09555903682672745
aF0.00429669101286916
aI0
aI0
aF0.047282460911174044
aI0
aF0.0064220532369649655
aF0.0007997736297896967
aI0
aF0.009038856558328248
aF0.007819692943130197
aI0
aF0.008977898925755994
aF0.05134997625980458
aF0.0025242943660597297
aF0.02969763880563585
aI0
aI0
aF0.0018625100473530483
aF0.6607643262498173
aF0.0028516767168226364
aI0
aF0.013420775650083898
aI0
aF0.00947407126965446
aF0.02999023357060762
aF0.00493216139570561
aI0
aI0
aF0.007001688855508963
aI0
aF0.0022222719875391447
aF0.06113589160939796
aI0
aF0.001746504012597254
aF0.00439128771175204
aI0
aI0
aI0
aI0
aF0.00599550244543877
aI0
aI0
aI0
aI0
aF0.0029139159122500958
aF0.02469938917795974
aF0.2613957072424916
aF0.006944860532631826
aF0.0011213447768976985
aI0
aI0
aI0
aF0.0018625100473530483
aF0.00271981873628977
aI0
aF0.0012093888578303762
aI0
aI0
aI0
aI0
aF0.009882217347160098
aI0
aF0.024367360968217597
aF0.038157022118126396
aI0
aI0
aF0.006526238199776512
aF0.007922641663620115
aF0.007338780801681219
aF0.0005899923781506197
aF0.0006610625744226944
aF0.10800095727424389
aF0.009015361678873363
aF0.18690648215871491
aF0.26522838137288984
aF0.0026565708952087964
aI0
aI0
aF0.005992763725553987
aI0
aF0.0010888830147219152
aI0
aF0.03202651455048317
aF0.011780503619685188
aF0.021174885183520162
aI0
aF0.010965579665966943
aF0.001220306590933575
aI0
aI0
aF0.006473467827259189
aF0.0031848421513541534
aI0
aF0.0029903040431014704
aF0.0009536543555189041
aF0.024529240608398423
aF0.003076434288706182
aF0.00828407876446547
aI0
aF0.01198049348850205
aI0
aF0.00947407126965446
aF0.009394931938886393
aF0.005713622975507491
aF0.009062840929770288
aF0.001977824802978004
aI0
aI0
aF0.011082177481339908
aF0.0023177804504617276
aI0
aF0.34744509717763516
aI0
aF0.004570760373694448
aI0
aF0.00439128771175204
aF0.006944860532631826
aI0
aF0.00025183214795829027
aF0.01045180680090943
aI0
aF0.06409772992642665
aF0.013122682817370572
aF0.014919573924419246
aF0.007947345214150223
aF0.0029903040431014704
aF0.01025817863607887
aF0.04680024514157705
aF0.009586257845807338
aF0.008209410352088782
aF0.0006610625744226944
aI0
aI0
aF0.0025242943660597297
aF0.005992763725553987
aI0
aF0.012194347122998566
aI0
aI0
aF0.007233815420300617
aF0.006777670769140204
aI0
aF0.007819692943130197
aF0.006188207475616154
aF0.005618480468187735
aF0.006408790333978701
aF5.63872831517689e-05
aF0.0022367509043028293
aF0.028650503968782392
aF0.00439128771175204
aF0.011273887525770283
aF0.004557752480033508
aI0
aI0
aI0
aF5.63872831517689e-05
aF0.03001120326039246
aF0.011909541175375666
aI0
aI0
aI0
aF0.0070826080218954314
aF0.01997942778812002
aF0.022619277857916734
aI0
aF0.003875914478337799
aF0.02373963520515991
aF0.030440003501689936
aI0
aF0.00830500189270689
aI0
aF0.002135831782532248
aF0.10475598720854283
aI0
aF0.001738717250733055
aF0.009232135570130251
aF0.010183040724552908
aF0.012194347122998566
aF0.07941207633708659
aI0
aI0
aI0
aI0
aF0.006405680260579748
aI0
aI0
aF0.010965579665966943
aF0.008519751468002209
aI0
aF0.004557752480033508
aF0.006211197420299112
aF0.00493216139570561
aF0.0022730448734237805
aF5.63872831517689e-05
aF0.0006610625744226944
aF0.000200619513147592
aI0
aF0.00182538211605438
aI0
aF0.0025242943660597297
aF5.63872831517689e-05
aF0.12671569733157903
aF0.00015093950837839605
aF0.0058364768598987565
aF0.006917764105148859
aI0
aF0.00015093950837839605
aF0.21858031552903967
aF0.00808061527165094
aI0
aF0.009646875432974968
aF0.01232449949470429
aI0
aF0.004458620477401248
aI0
aI0
aF0.01025817863607887
aF0.012900545760242152
aF0.00683331856822017
aF0.001703932228646941
aF0.00439128771175204
aI0
aI0
aF0.0029903040431014704
aF0.005713622975507491
aF0.0031848421513541534
aF0.012900545760242152
aI0
aI0
aF0.000977095408954605
aI0
aF0.0008176658993694551
aF0.00583492471360062
aI0
aF0.0006610625744226944
aF0.0029903040431014704
aF0.019051863385510005
aI0
aI0
aF0.010917257710128147
aI0
aF0.010476665071554156
aF0.005032420958824758
aF0.005722229547589902
aF0.009752396617149963
aF0.008519751468002209
aF0.009053670435817233
aI0
aF0.037449092668912866
aF0.011552060090394608
aF0.019141603290963486
aI0
aF0.022863486446501408
aF0.0013478891297484749
aF0.023852344315218526
aF0.005722229547589902
aF0.00015093950837839605
aF0.0417815060669555
aI0
aF0.0029544863500242068
aF0.01045180680090943
aF0.013301395313987052
aF0.4962587084332936
aF0.00521487292270062
aI0
aF0.013559314773989759
aI0
aF0.061965083768934705
aF0.0029544863500242068
aF0.0014526439501539594
aI0
aI0
aF0.009398388648764603
aF0.009398388648764603
aF0.009394931938886393
aF0.004570760373694448
aF0.8734981873757631
aI0
aF0.01031640492942954
aF0.05550335572628451
aF0.004555875433903764
aF0.0010831834725970552
aF0.0025242943660597297
aI0
aI0
aF0.01472277522528553
aF0.3481012822212969
aI0
aF0.036365054493830484
aF0.21340392922819645
aF0.001555273317304391
aF0.03975849903588957
aF0.0020766328177084336
aF0.016936970093605157
aI0
aI0
aF0.10428934579602633
aF0.0012175321800912467
aF0.003184799141498247
aF0.006428062169571914
aF0.0016132370751227012
aF0.004314195928010244
aI0
aF0.008581113158280087
aF0.02037292787336445
aF0.0011106732005613403
aF0.2922745426164082
aI0
aF0.011721881750287747
aF0.124493940208422
aI0
aF0.009321392266538348
aI0
aF0.013039145022660901
aF0.005699736662464863
aI0
aF0.08149964723992112
aF0.025336959260836803
aI0
aF0.02297061388465974
aF0.0024726417868821985
aF0.0032303395179222273
aI0
aI0
aI0
aI0
aI0
aF0.00029640553397026174
aI0
aF0.06230904435087099
aI0
aI0
aF0.002781172507633724
aI0
aI0
aI0
aI0
aI0
aI0
atp31
bsS'nls_max_iter'
p32
I2000
sS'eta'
p33
F0.1
sS'random_state'
p34
NsS'max_iter'
p35
I200
sS'comp_sparseness_'
p36
g7
(g11
S'u6\xfe\xd1Si\xe9?'
p37
tp38
Rp39
sS'init'
p40
NsS'beta'
p41
I1
sS'sparseness'
p42
NsS'n_components'
p43
I2
sS'tol'
p44
F0.0001
sS'n_components_'
p45
I2
sS'data_sparseness_'
p46
g7
(g11
S'\xe6j*4\xfa\x00\xd5?'
p47
tp48
Rp49
sb.